Certificate:
    Data:
        Version: 3 (0x2)
        Serial Number:
            0a:0d:a0:db:de:99:86:21:85:69:62:a9:46:e9:b5:14:83:0f:76:39
        Signature Algorithm: sha1WithRSAEncryption
        Issuer: C=AU, O=Dodgy Brothers, CN=Dodgy CA
        Validity
            Not Before: Mar  6 13:41:07 2023 GMT
            Not After : Mar  5 13:41:07 2024 GMT
        Subject: C=AU, O=Dodgy Brothers, CN=Brother 1, CN=nextupdate_generalizedtime
        Subject Public Key Info:
            Public Key Algorithm: rsaEncryption
                Public-Key: (2048 bit)
                Modulus:
                    00:be:95:86:fa:71:4c:6a:ea:51:98:50:4b:99:a1:
                    2c:66:15:f3:60:f3:e1:ff:69:fb:ce:48:01:1d:fe:
                    e1:2c:38:b0:e3:bd:8f:4b:48:a7:7e:3a:c6:73:e3:
                    ab:bf:e1:da:6e:96:f5:fe:c3:e4:b4:a8:ad:bc:56:
                    34:d4:96:25:74:27:c3:10:db:35:10:25:1c:8e:4b:
                    81:9b:fb:42:04:7c:6f:3d:e2:38:6c:0e:e4:2e:8e:
                    2a:18:6d:30:cd:67:2a:23:6b:37:cf:05:9f:cc:b7:
                    59:58:7f:ba:c4:0a:3f:8c:a4:ad:cb:98:9c:c0:f2:
                    8f:69:67:0f:c1:4e:33:cf:fc:85:5e:bb:5e:cf:93:
                    b0:cf:d9:f4:52:79:87:b1:f8:4d:15:68:65:d5:b7:
                    19:08:63:7f:5e:b1:34:ad:05:8f:5a:f0:e4:e1:8f:
                    25:f2:5c:5c:61:95:b0:56:2d:31:2b:08:65:79:e5:
                    b1:3b:9d:3e:b9:52:4b:ac:5d:c4:58:66:85:8d:81:
                    b3:04:28:f4:3f:2f:ac:92:01:62:d5:fd:8e:0b:da:
                    02:0c:7a:c7:6e:09:1c:ac:1c:b2:4c:d7:54:b8:26:
                    33:b2:5f:14:f3:b1:f9:3d:62:4d:40:99:6b:b6:e7:
                    89:58:97:d6:d4:4d:ea:4b:68:52:f3:3c:a8:b1:35:
                    88:db
                Exponent: 65537 (0x10001)
        X509v3 extensions:
            X509v3 Subject Key Identifier: 
                A1:DF:33:C3:CF:3E:53:41:A7:68:44:CC:AA:19:E1:84:C9:0D:BC:C6
            X509v3 Authority Key Identifier: 
                keyid:B4:11:33:F1:D7:E2:5E:F7:53:9E:20:22:10:4F:86:06:BF:1F:C9:5E
                DirName:/C=AU/O=Dodgy Brothers/CN=Dodgy CA
                serial:7B:36:77:E0:2F:99:A5:9F:9D:C0:A4:C8:37:28:35:21:E5:D1:0B:1C
            X509v3 Basic Constraints: critical
                CA:TRUE, pathlen:1
            X509v3 Key Usage: 
                Certificate Sign, CRL Sign
            X509v3 Issuer Alternative Name: 
                <EMPTY>

    Signature Algorithm: sha1WithRSAEncryption
    Signature Value:
        94:ca:8e:6c:08:3e:b6:15:2f:79:11:7d:4a:23:9f:2c:0b:ab:
        31:07:63:07:61:fe:23:9b:13:45:5a:94:fe:71:46:81:12:7a:
        ac:27:52:7f:ff:57:57:4f:25:76:21:2e:ef:46:db:1b:09:e2:
        32:2c:5d:d2:97:e0:18:37:41:dd:6c:89:cd:24:b6:5f:fa:5c:
        35:9e:8f:e1:28:23:d9:56:c6:78:bc:c9:aa:14:ef:d1:02:a4:
        71:11:fd:46:76:89:dc:2e:a6:d8:1b:14:68:b9:d6:3d:d4:23:
        f2:22:d7:7d:72:99:a2:56:92:62:31:04:4d:83:76:d2:ac:d0:
        17:5d:56:4f:f3:7e:fd:c8:29:fa:ad:cd:8a:97:51:ad:31:1f:
        af:7e:bd:6f:74:36:6c:71:aa:2d:66:0e:e5:45:dd:64:af:3e:
        8a:0d:93:6e:e7:19:06:2e:39:46:5f:6b:69:bf:56:1d:a6:b5:
        de:d6:f5:c1:73:8a:0e:4d:3f:14:bf:6c:a6:e6:9f:53:a5:5b:
        c5:bc:7f:d4:e7:63:83:61:cf:57:29:ce:c6:a7:99:ac:52:93:
        b2:98:12:6b:67:dd:e1:23:4b:f9:7b:d1:e5:02:4b:f6:1d:43:
        d0:d7:73:41:72:4f:b5:50:3a:87:88:92:b9:cb:5f:ea:f5:50:
        c0:56:28:f9
-----BEGIN CERTIFICATE-----
MIID6zCCAtOgAwIBAgIUCg2g296ZhiGFaWKpRum1FIMPdjkwDQYJKoZIhvcNAQEF
BQAwOTELMAkGA1UEBhMCQVUxFzAVBgNVBAoMDkRvZGd5IEJyb3RoZXJzMREwDwYD
VQQDDAhEb2RneSBDQTAeFw0yMzAzMDYxMzQxMDdaFw0yNDAzMDUxMzQxMDdaMF8x
CzAJBgNVBAYTAkFVMRcwFQYDVQQKDA5Eb2RneSBCcm90aGVyczESMBAGA1UEAwwJ
QnJvdGhlciAxMSMwIQYDVQQDDBpuZXh0dXBkYXRlX2dlbmVyYWxpemVkdGltZTCC
ASIwDQYJKoZIhvcNAQEBBQADggEPADCCAQoCggEBAL6VhvpxTGrqUZhQS5mhLGYV
82Dz4f9p+85IAR3+4Sw4sOO9j0tIp346xnPjq7/h2m6W9f7D5LSorbxWNNSWJXQn
wxDbNRAlHI5LgZv7QgR8bz3iOGwO5C6OKhhtMM1nKiNrN88Fn8y3WVh/usQKP4yk
rcuYnMDyj2lnD8FOM8/8hV67Xs+TsM/Z9FJ5h7H4TRVoZdW3GQhjf16xNK0Fj1rw
5OGPJfJcXGGVsFYtMSsIZXnlsTudPrlSS6xdxFhmhY2BswQo9D8vrJIBYtX9jgva
Agx6x24JHKwcskzXVLgmM7JfFPOx+T1iTUCZa7bniViX1tRN6ktoUvM8qLE1iNsC
AwEAAaOBxDCBwTAdBgNVHQ4EFgQUod8zw88+U0GnaETMqhnhhMkNvMYwdAYDVR0j
BG0wa4AUtBEz8dfiXvdTniAiEE+GBr8fyV6hPaQ7MDkxCzAJBgNVBAYTAkFVMRcw
FQYDVQQKDA5Eb2RneSBCcm90aGVyczERMA8GA1UEAwwIRG9kZ3kgQ0GCFHs2d+Av
maWfncCkyDcoNSHl0QscMBIGA1UdEwEB/wQIMAYBAf8CAQEwCwYDVR0PBAQDAgEG
MAkGA1UdEgQCMAAwDQYJKoZIhvcNAQEFBQADggEBAJTKjmwIPrYVL3kRfUojnywL
qzEHYwdh/iObE0ValP5xRoESeqwnUn//V1dPJXYhLu9G2xsJ4jIsXdKX4Bg3Qd1s
ic0ktl/6XDWej+EoI9lWxni8yaoU79ECpHER/UZ2idwuptgbFGi51j3UI/Ii131y
maJWkmIxBE2DdtKs0BddVk/zfv3IKfqtzYqXUa0xH69+vW90Nmxxqi1mDuVF3WSv
PooNk27nGQYuOUZfa2m/Vh2mtd7W9cFzig5NPxS/bKbmn1OlW8W8f9TnY4Nhz1cp
zsanmaxSk7KYEmtn3eEjS/l70eUCS/YdQ9DXc0FyT7VQOoeIkrnLX+r1UMBWKPk=
-----END CERTIFICATE-----
