Certificate:
    Data:
        Version: 3 (0x2)
        Serial Number:
            0a:0d:a0:db:de:99:86:21:85:69:62:a9:46:e9:b5:14:83:0f:76:37
        Signature Algorithm: sha1WithRSAEncryption
        Issuer: C=AU, O=Dodgy Brothers, CN=Dodgy CA
        Validity
            Not Before: Mar  6 13:41:06 2023 GMT
            Not After : Mar  5 13:41:06 2024 GMT
        Subject: C=AU, O=Dodgy Brothers, CN=Brother 1, CN=nextupdate_invalid
        Subject Public Key Info:
            Public Key Algorithm: rsaEncryption
                Public-Key: (2048 bit)
                Modulus:
                    00:be:95:86:fa:71:4c:6a:ea:51:98:50:4b:99:a1:
                    2c:66:15:f3:60:f3:e1:ff:69:fb:ce:48:01:1d:fe:
                    e1:2c:38:b0:e3:bd:8f:4b:48:a7:7e:3a:c6:73:e3:
                    ab:bf:e1:da:6e:96:f5:fe:c3:e4:b4:a8:ad:bc:56:
                    34:d4:96:25:74:27:c3:10:db:35:10:25:1c:8e:4b:
                    81:9b:fb:42:04:7c:6f:3d:e2:38:6c:0e:e4:2e:8e:
                    2a:18:6d:30:cd:67:2a:23:6b:37:cf:05:9f:cc:b7:
                    59:58:7f:ba:c4:0a:3f:8c:a4:ad:cb:98:9c:c0:f2:
                    8f:69:67:0f:c1:4e:33:cf:fc:85:5e:bb:5e:cf:93:
                    b0:cf:d9:f4:52:79:87:b1:f8:4d:15:68:65:d5:b7:
                    19:08:63:7f:5e:b1:34:ad:05:8f:5a:f0:e4:e1:8f:
                    25:f2:5c:5c:61:95:b0:56:2d:31:2b:08:65:79:e5:
                    b1:3b:9d:3e:b9:52:4b:ac:5d:c4:58:66:85:8d:81:
                    b3:04:28:f4:3f:2f:ac:92:01:62:d5:fd:8e:0b:da:
                    02:0c:7a:c7:6e:09:1c:ac:1c:b2:4c:d7:54:b8:26:
                    33:b2:5f:14:f3:b1:f9:3d:62:4d:40:99:6b:b6:e7:
                    89:58:97:d6:d4:4d:ea:4b:68:52:f3:3c:a8:b1:35:
                    88:db
                Exponent: 65537 (0x10001)
        X509v3 extensions:
            X509v3 Subject Key Identifier: 
                A1:DF:33:C3:CF:3E:53:41:A7:68:44:CC:AA:19:E1:84:C9:0D:BC:C6
            X509v3 Authority Key Identifier: 
                keyid:B4:11:33:F1:D7:E2:5E:F7:53:9E:20:22:10:4F:86:06:BF:1F:C9:5E
                DirName:/C=AU/O=Dodgy Brothers/CN=Dodgy CA
                serial:7B:36:77:E0:2F:99:A5:9F:9D:C0:A4:C8:37:28:35:21:E5:D1:0B:1C
            X509v3 Basic Constraints: critical
                CA:TRUE, pathlen:1
            X509v3 Key Usage: 
                Certificate Sign, CRL Sign
            X509v3 Issuer Alternative Name: 
                <EMPTY>

    Signature Algorithm: sha1WithRSAEncryption
    Signature Value:
        21:54:bb:6d:6f:1b:a3:52:44:46:2d:72:37:96:a3:32:2d:e2:
        50:eb:ca:1a:d2:23:6b:4e:06:00:96:0b:fd:49:e9:66:5b:47:
        0c:40:c2:c6:1b:3b:10:d3:9c:a0:ce:dc:97:44:53:86:37:e7:
        05:b7:d4:0a:da:da:57:9f:7d:34:f8:41:e5:ec:5a:a3:82:b2:
        c4:8c:a3:93:4e:6c:2a:da:35:ed:21:5f:d9:b0:58:f2:e1:e6:
        f0:a8:7e:61:a8:a8:73:32:7f:ed:8f:99:79:38:43:60:2e:eb:
        0c:c9:06:63:fe:17:ad:00:47:ec:d2:a3:b6:df:90:88:d0:e4:
        b4:cd:ef:df:d4:53:b4:2d:6b:05:1a:7c:4d:ae:95:18:1c:bb:
        f2:ac:df:25:c6:fe:48:58:00:57:1d:02:eb:ab:d3:3c:85:a9:
        fd:d4:e2:24:28:f0:6f:da:42:d6:d5:ed:4e:e7:da:9a:88:51:
        8a:4e:21:0a:9f:d3:b4:9b:d8:f8:a3:15:dc:f3:65:42:d2:a4:
        c0:ec:92:c1:df:47:0d:f5:6f:fd:da:a7:ae:42:7e:9c:97:13:
        51:8d:5d:68:0d:31:cd:0a:e5:d1:88:04:e0:64:e8:f1:7f:12:
        c2:ff:d4:8f:cf:ad:09:f4:c6:70:36:5b:63:94:96:c4:9b:a9:
        dd:8b:91:5a
-----BEGIN CERTIFICATE-----
MIID4zCCAsugAwIBAgIUCg2g296ZhiGFaWKpRum1FIMPdjcwDQYJKoZIhvcNAQEF
BQAwOTELMAkGA1UEBhMCQVUxFzAVBgNVBAoMDkRvZGd5IEJyb3RoZXJzMREwDwYD
VQQDDAhEb2RneSBDQTAeFw0yMzAzMDYxMzQxMDZaFw0yNDAzMDUxMzQxMDZaMFcx
CzAJBgNVBAYTAkFVMRcwFQYDVQQKDA5Eb2RneSBCcm90aGVyczESMBAGA1UEAwwJ
QnJvdGhlciAxMRswGQYDVQQDDBJuZXh0dXBkYXRlX2ludmFsaWQwggEiMA0GCSqG
SIb3DQEBAQUAA4IBDwAwggEKAoIBAQC+lYb6cUxq6lGYUEuZoSxmFfNg8+H/afvO
SAEd/uEsOLDjvY9LSKd+OsZz46u/4dpulvX+w+S0qK28VjTUliV0J8MQ2zUQJRyO
S4Gb+0IEfG894jhsDuQujioYbTDNZyojazfPBZ/Mt1lYf7rECj+MpK3LmJzA8o9p
Zw/BTjPP/IVeu17Pk7DP2fRSeYex+E0VaGXVtxkIY39esTStBY9a8OThjyXyXFxh
lbBWLTErCGV55bE7nT65UkusXcRYZoWNgbMEKPQ/L6ySAWLV/Y4L2gIMesduCRys
HLJM11S4JjOyXxTzsfk9Yk1AmWu254lYl9bUTepLaFLzPKixNYjbAgMBAAGjgcQw
gcEwHQYDVR0OBBYEFKHfM8PPPlNBp2hEzKoZ4YTJDbzGMHQGA1UdIwRtMGuAFLQR
M/HX4l73U54gIhBPhga/H8leoT2kOzA5MQswCQYDVQQGEwJBVTEXMBUGA1UECgwO
RG9kZ3kgQnJvdGhlcnMxETAPBgNVBAMMCERvZGd5IENBghR7NnfgL5mln53ApMg3
KDUh5dELHDASBgNVHRMBAf8ECDAGAQH/AgEBMAsGA1UdDwQEAwIBBjAJBgNVHRIE
AjAAMA0GCSqGSIb3DQEBBQUAA4IBAQAhVLttbxujUkRGLXI3lqMyLeJQ68oa0iNr
TgYAlgv9SelmW0cMQMLGGzsQ05ygztyXRFOGN+cFt9QK2tpXn300+EHl7FqjgrLE
jKOTTmwq2jXtIV/ZsFjy4ebwqH5hqKhzMn/tj5l5OENgLusMyQZj/hetAEfs0qO2
35CI0OS0ze/f1FO0LWsFGnxNrpUYHLvyrN8lxv5IWABXHQLrq9M8han91OIkKPBv
2kLW1e1O59qaiFGKTiEKn9O0m9j4oxXc82VC0qTA7JLB30cN9W/92qeuQn6clxNR
jV1oDTHNCuXRiATgZOjxfxLC/9SPz60J9MZwNltjlJbEm6ndi5Fa
-----END CERTIFICATE-----
