Certificate:
    Data:
        Version: 3 (0x2)
        Serial Number:
            0a:0d:a0:db:de:99:86:21:85:69:62:a9:46:e9:b5:14:83:0f:76:31
        Signature Algorithm: sha256WithRSAEncryption
        Issuer: C=AU, O=Dodgy Brothers, CN=Dodgy CA
        Validity
            Not Before: Mar  6 13:41:03 2023 GMT
            Not After : Mar  5 13:41:03 2024 GMT
        Subject: C=AU, O=Dodgy Brothers, CN=Brother 1, CN=Brother 2
        Subject Public Key Info:
            Public Key Algorithm: rsaEncryption
                Public-Key: (2048 bit)
                Modulus:
                    00:a8:ff:89:58:61:85:ae:de:db:2c:0f:d5:73:fb:
                    e2:b7:a8:1b:7a:75:60:2b:d4:7d:3c:73:76:b5:ae:
                    de:93:2f:7f:24:90:6d:c9:1c:f4:8a:38:cd:9f:a2:
                    80:16:56:cb:b4:2c:bb:93:e5:17:1f:ff:0d:c6:43:
                    fe:31:34:f8:28:d8:75:e9:a3:bb:88:82:ef:a3:72:
                    e2:53:62:05:45:4d:e0:31:97:ef:aa:9d:10:d2:58:
                    0d:9e:06:9e:32:bb:1b:08:56:5d:65:0f:3f:66:8e:
                    c2:36:a0:11:ff:c0:59:35:fd:49:1c:dd:1c:42:33:
                    06:78:ae:04:38:23:e5:e7:75:67:d3:94:ad:5a:a9:
                    40:1f:ac:59:10:f5:0c:c1:64:ad:4a:c4:c6:35:53:
                    b3:96:6a:82:1b:15:8b:d1:99:ab:e4:9e:6f:94:aa:
                    d2:96:e5:57:fb:8c:91:64:8a:3c:24:16:c6:d2:19:
                    be:82:60:13:3b:62:b0:ed:3e:1d:b3:ca:f9:6b:df:
                    31:b9:7a:9e:4b:47:68:a7:29:c7:3f:4a:e2:22:27:
                    b4:ef:90:63:d7:ef:d0:72:49:3e:5b:ad:b9:1b:d4:
                    2b:6f:86:68:dd:d5:73:12:b8:43:c9:dc:41:0f:a2:
                    a3:46:4f:8b:67:88:84:0f:61:fe:79:34:1f:4a:89:
                    1f:b7
                Exponent: 65537 (0x10001)
        X509v3 extensions:
            X509v3 Basic Constraints: 
                CA:FALSE
            X509v3 Subject Key Identifier: 
                E7:9B:E2:2A:AD:8A:6C:3A:CB:76:51:E5:8E:07:98:22:97:E1:73:A2
            X509v3 Authority Key Identifier: 
                B4:11:33:F1:D7:E2:5E:F7:53:9E:20:22:10:4F:86:06:BF:1F:C9:5E
    Signature Algorithm: sha256WithRSAEncryption
    Signature Value:
        5a:25:0c:ca:a4:e5:59:f8:45:e6:64:1b:40:c2:1f:21:5f:90:
        f6:59:bf:ad:5c:a3:01:b9:0f:b8:d7:c3:8e:a0:ce:9d:9c:c9:
        70:a0:65:33:08:e2:b3:12:c9:ab:cf:29:94:11:ce:8e:d3:c9:
        8c:13:e1:b3:31:0d:55:4c:74:d0:38:e9:c7:04:e9:61:5d:e3:
        94:b1:13:66:60:ef:a5:3a:b7:2f:cd:f5:34:b8:4c:24:d7:a2:
        13:ed:1e:73:d4:9b:2b:a9:c1:84:cc:8f:0b:5d:a4:8c:69:4f:
        bd:fe:17:31:c2:54:29:11:8d:4e:7f:ed:aa:c3:6d:ec:d4:a5:
        7d:2d:7b:58:2e:db:ff:07:59:8a:43:47:fa:60:91:46:56:ef:
        b7:ea:11:5f:c5:7a:c3:40:7a:0c:cb:1d:6e:93:69:9c:6d:a2:
        f3:6a:5b:ce:46:ff:e5:0c:ff:7c:5f:63:af:6e:4e:9d:66:96:
        18:bc:c7:6c:9c:63:20:2c:95:80:08:38:49:ae:ec:de:f7:bf:
        48:5a:a5:6b:57:8c:e4:69:03:f9:1b:8e:0c:00:2c:b2:0f:6a:
        9a:f3:ef:6c:c1:ef:7d:5e:1d:08:52:40:29:d4:04:18:73:f8:
        4f:13:ad:aa:c6:0e:f3:e7:11:92:95:2c:81:9f:7b:81:79:ed:
        5e:7e:58:61
-----BEGIN CERTIFICATE-----
MIIDYjCCAkqgAwIBAgIUCg2g296ZhiGFaWKpRum1FIMPdjEwDQYJKoZIhvcNAQEL
BQAwOTELMAkGA1UEBhMCQVUxFzAVBgNVBAoMDkRvZGd5IEJyb3RoZXJzMREwDwYD
VQQDDAhEb2RneSBDQTAeFw0yMzAzMDYxMzQxMDNaFw0yNDAzMDUxMzQxMDNaME4x
CzAJBgNVBAYTAkFVMRcwFQYDVQQKDA5Eb2RneSBCcm90aGVyczESMBAGA1UEAwwJ
QnJvdGhlciAxMRIwEAYDVQQDDAlCcm90aGVyIDIwggEiMA0GCSqGSIb3DQEBAQUA
A4IBDwAwggEKAoIBAQCo/4lYYYWu3tssD9Vz++K3qBt6dWAr1H08c3a1rt6TL38k
kG3JHPSKOM2fooAWVsu0LLuT5Rcf/w3GQ/4xNPgo2HXpo7uIgu+jcuJTYgVFTeAx
l++qnRDSWA2eBp4yuxsIVl1lDz9mjsI2oBH/wFk1/Ukc3RxCMwZ4rgQ4I+XndWfT
lK1aqUAfrFkQ9QzBZK1KxMY1U7OWaoIbFYvRmavknm+UqtKW5Vf7jJFkijwkFsbS
Gb6CYBM7YrDtPh2zyvlr3zG5ep5LR2inKcc/SuIiJ7TvkGPX79ByST5brbkb1Ctv
hmjd1XMSuEPJ3EEPoqNGT4tniIQPYf55NB9KiR+3AgMBAAGjTTBLMAkGA1UdEwQC
MAAwHQYDVR0OBBYEFOeb4iqtimw6y3ZR5Y4HmCKX4XOiMB8GA1UdIwQYMBaAFLQR
M/HX4l73U54gIhBPhga/H8leMA0GCSqGSIb3DQEBCwUAA4IBAQBaJQzKpOVZ+EXm
ZBtAwh8hX5D2Wb+tXKMBuQ+418OOoM6dnMlwoGUzCOKzEsmrzymUEc6O08mME+Gz
MQ1VTHTQOOnHBOlhXeOUsRNmYO+lOrcvzfU0uEwk16IT7R5z1JsrqcGEzI8LXaSM
aU+9/hcxwlQpEY1Of+2qw23s1KV9LXtYLtv/B1mKQ0f6YJFGVu+36hFfxXrDQHoM
yx1uk2mcbaLzalvORv/lDP98X2Ovbk6dZpYYvMdsnGMgLJWACDhJruze979IWqVr
V4zkaQP5G44MACyyD2qa8+9swe99Xh0IUkAp1AQYc/hPE62qxg7z5xGSlSyBn3uB
ee1eflhh
-----END CERTIFICATE-----
