Certificate:
    Data:
        Version: 3 (0x2)
        Serial Number:
            0a:0d:a0:db:de:99:86:21:85:69:62:a9:46:e9:b5:14:83:0f:76:32
        Signature Algorithm: SM2-with-SM3
        Issuer: C=CN, ST=LN, L=Shenyang, O=Test Org, OU=Test OU, CN=Test SM2 CA
        Validity
            Not Before: Mar  6 13:41:03 2023 GMT
            Not After : Mar  5 13:41:03 2024 GMT
        Subject: C=CN, ST=Liaoning, L=Shenyang, O=Tet, OU=Tet, CN=oo/emailAddress=oo@oo.oo
        Subject Public Key Info:
            Public Key Algorithm: sm2
                Public-Key: (256 bit)
                pub:
                    04:d4:d8:dd:3a:99:5d:72:34:e4:b9:9a:5d:18:33:
                    72:1c:09:e1:2b:d7:01:d9:16:7b:8c:09:85:ce:de:
                    e3:80:4b:3d:38:74:a0:ad:bd:dc:ae:3c:fe:a8:66:
                    5f:ab:22:79:03:26:6e:95:0e:e0:74:04:73:6f:51:
                    f9:e6:3b:f0:e6
                ASN1 OID: SM2
        X509v3 extensions:
            X509v3 Subject Key Identifier: 
                F6:52:D4:54:D4:26:10:46:F6:AA:D3:B4:8C:E6:F7:5A:BC:B0:2A:B3
            X509v3 Authority Key Identifier: 
                keyid:C5:8D:C5:AE:FF:32:60:49:9E:52:29:49:54:E5:5C:78:FF:45:B9:74
                DirName:/C=CN/ST=LN/L=Shenyang/O=Test Org/OU=Test OU/CN=Test SM2 CA
                serial:E9:64:A4:3A:52:AE:65:5B
            X509v3 Basic Constraints: critical
                CA:TRUE, pathlen:1
            X509v3 Key Usage: 
                Certificate Sign, CRL Sign
            X509v3 Issuer Alternative Name: 
                <EMPTY>

    Signature Algorithm: SM2-with-SM3
    Signature Value:
        30:44:02:20:3c:92:08:ac:98:bd:41:4d:b0:53:cb:37:7b:87:
        58:bd:61:36:01:9a:9f:6b:21:a8:e3:bc:4a:c6:e9:ad:d6:cd:
        02:20:68:50:35:3d:a2:17:1c:d3:9a:18:8f:eb:db:21:4f:41:
        b3:f5:22:1f:e8:c3:4e:af:6e:c5:b0:d8:8a:cb:e7:b5
-----BEGIN CERTIFICATE-----
MIICyzCCAnKgAwIBAgIUCg2g296ZhiGFaWKpRum1FIMPdjIwCgYIKoEcz1UBg3Uw
aDELMAkGA1UEBhMCQ04xCzAJBgNVBAgMAkxOMREwDwYDVQQHDAhTaGVueWFuZzER
MA8GA1UECgwIVGVzdCBPcmcxEDAOBgNVBAsMB1Rlc3QgT1UxFDASBgNVBAMMC1Rl
c3QgU00yIENBMB4XDTIzMDMwNjEzNDEwM1oXDTI0MDMwNTEzNDEwM1owdTELMAkG
A1UEBhMCQ04xETAPBgNVBAgMCExpYW9uaW5nMREwDwYDVQQHDAhTaGVueWFuZzEM
MAoGA1UECgwDVGV0MQwwCgYDVQQLDANUZXQxCzAJBgNVBAMMAm9vMRcwFQYJKoZI
hvcNAQkBFghvb0Bvby5vbzBaMBQGCCqBHM9VAYItBggqgRzPVQGCLQNCAATU2N06
mV1yNOS5ml0YM3IcCeEr1wHZFnuMCYXO3uOASz04dKCtvdyuPP6oZl+rInkDJm6V
DuB0BHNvUfnmO/Dmo4HrMIHoMB0GA1UdDgQWBBT2UtRU1CYQRvaq07SM5vdavLAq
szCBmgYDVR0jBIGSMIGPgBTFjcWu/zJgSZ5SKUlU5Vx4/0W5dKFspGowaDELMAkG
A1UEBhMCQ04xCzAJBgNVBAgMAkxOMREwDwYDVQQHDAhTaGVueWFuZzERMA8GA1UE
CgwIVGVzdCBPcmcxEDAOBgNVBAsMB1Rlc3QgT1UxFDASBgNVBAMMC1Rlc3QgU00y
IENBggkA6WSkOlKuZVswEgYDVR0TAQH/BAgwBgEB/wIBATALBgNVHQ8EBAMCAQYw
CQYDVR0SBAIwADAKBggqgRzPVQGDdQNHADBEAiA8kgismL1BTbBTyzd7h1i9YTYB
mp9rIajjvErG6a3WzQIgaFA1PaIXHNOaGI/r2yFPQbP1Ih/ow06vbsWw2IrL57U=
-----END CERTIFICATE-----
