Certificate:
    Data:
        Version: 3 (0x2)
        Serial Number:
            0a:0d:a0:db:de:99:86:21:85:69:62:a9:46:e9:b5:14:83:0f:76:36
        Signature Algorithm: sha1WithRSAEncryption
        Issuer: C=AU, O=Dodgy Brothers, CN=Dodgy CA
        Validity
            Not Before: Mar  6 13:41:05 2023 GMT
            Not After : Mar  5 13:41:05 2024 GMT
        Subject: C=AU, O=Dodgy Brothers, CN=Brother 1, CN=lastupdate_generalizedtime
        Subject Public Key Info:
            Public Key Algorithm: rsaEncryption
                Public-Key: (2048 bit)
                Modulus:
                    00:be:95:86:fa:71:4c:6a:ea:51:98:50:4b:99:a1:
                    2c:66:15:f3:60:f3:e1:ff:69:fb:ce:48:01:1d:fe:
                    e1:2c:38:b0:e3:bd:8f:4b:48:a7:7e:3a:c6:73:e3:
                    ab:bf:e1:da:6e:96:f5:fe:c3:e4:b4:a8:ad:bc:56:
                    34:d4:96:25:74:27:c3:10:db:35:10:25:1c:8e:4b:
                    81:9b:fb:42:04:7c:6f:3d:e2:38:6c:0e:e4:2e:8e:
                    2a:18:6d:30:cd:67:2a:23:6b:37:cf:05:9f:cc:b7:
                    59:58:7f:ba:c4:0a:3f:8c:a4:ad:cb:98:9c:c0:f2:
                    8f:69:67:0f:c1:4e:33:cf:fc:85:5e:bb:5e:cf:93:
                    b0:cf:d9:f4:52:79:87:b1:f8:4d:15:68:65:d5:b7:
                    19:08:63:7f:5e:b1:34:ad:05:8f:5a:f0:e4:e1:8f:
                    25:f2:5c:5c:61:95:b0:56:2d:31:2b:08:65:79:e5:
                    b1:3b:9d:3e:b9:52:4b:ac:5d:c4:58:66:85:8d:81:
                    b3:04:28:f4:3f:2f:ac:92:01:62:d5:fd:8e:0b:da:
                    02:0c:7a:c7:6e:09:1c:ac:1c:b2:4c:d7:54:b8:26:
                    33:b2:5f:14:f3:b1:f9:3d:62:4d:40:99:6b:b6:e7:
                    89:58:97:d6:d4:4d:ea:4b:68:52:f3:3c:a8:b1:35:
                    88:db
                Exponent: 65537 (0x10001)
        X509v3 extensions:
            X509v3 Subject Key Identifier: 
                A1:DF:33:C3:CF:3E:53:41:A7:68:44:CC:AA:19:E1:84:C9:0D:BC:C6
            X509v3 Authority Key Identifier: 
                keyid:B4:11:33:F1:D7:E2:5E:F7:53:9E:20:22:10:4F:86:06:BF:1F:C9:5E
                DirName:/C=AU/O=Dodgy Brothers/CN=Dodgy CA
                serial:7B:36:77:E0:2F:99:A5:9F:9D:C0:A4:C8:37:28:35:21:E5:D1:0B:1C
            X509v3 Basic Constraints: critical
                CA:TRUE, pathlen:1
            X509v3 Key Usage: 
                Certificate Sign, CRL Sign
            X509v3 Issuer Alternative Name: 
                <EMPTY>

    Signature Algorithm: sha1WithRSAEncryption
    Signature Value:
        28:1a:dc:f3:2d:77:29:43:c4:5b:96:94:e3:40:72:2b:b1:e3:
        82:79:26:00:93:89:2c:5b:a3:c9:c3:88:97:33:ca:24:ec:74:
        57:7e:32:a5:be:6b:ba:b3:25:a5:00:eb:3d:76:ad:01:9b:71:
        0c:a2:b2:05:b4:b1:6b:0c:b0:70:8d:c2:2b:5e:a7:6e:94:56:
        bb:dd:b8:85:78:62:15:10:45:8f:83:a4:b5:5f:93:b1:5a:9a:
        c1:07:d0:4f:df:8f:5e:f1:23:3a:5a:bc:5e:84:f5:57:1f:ea:
        f6:c9:3c:bf:ed:26:72:59:c6:c5:f5:fa:55:50:57:ee:eb:f4:
        79:90:f3:ed:c3:ca:5d:99:af:34:d0:41:78:30:e0:f5:68:77:
        26:05:d2:68:6e:2b:aa:10:df:6f:a5:36:36:0c:1b:ae:56:92:
        1f:06:dd:ef:7b:a7:1d:e8:85:34:d1:c9:1f:84:13:fa:14:4d:
        15:49:45:b6:3f:36:5c:c9:ef:5a:ed:f5:4a:cc:35:29:4d:8e:
        d2:ad:4e:49:4f:44:69:73:da:be:e2:30:da:e7:03:18:11:fc:
        aa:26:34:ab:b6:55:ae:a4:19:7f:d9:d9:df:b0:4c:d7:26:06:
        0f:40:df:8a:5e:78:04:c5:95:aa:6b:d4:68:c5:6f:80:22:c1:
        50:48:fc:28
-----BEGIN CERTIFICATE-----
MIID6zCCAtOgAwIBAgIUCg2g296ZhiGFaWKpRum1FIMPdjYwDQYJKoZIhvcNAQEF
BQAwOTELMAkGA1UEBhMCQVUxFzAVBgNVBAoMDkRvZGd5IEJyb3RoZXJzMREwDwYD
VQQDDAhEb2RneSBDQTAeFw0yMzAzMDYxMzQxMDVaFw0yNDAzMDUxMzQxMDVaMF8x
CzAJBgNVBAYTAkFVMRcwFQYDVQQKDA5Eb2RneSBCcm90aGVyczESMBAGA1UEAwwJ
QnJvdGhlciAxMSMwIQYDVQQDDBpsYXN0dXBkYXRlX2dlbmVyYWxpemVkdGltZTCC
ASIwDQYJKoZIhvcNAQEBBQADggEPADCCAQoCggEBAL6VhvpxTGrqUZhQS5mhLGYV
82Dz4f9p+85IAR3+4Sw4sOO9j0tIp346xnPjq7/h2m6W9f7D5LSorbxWNNSWJXQn
wxDbNRAlHI5LgZv7QgR8bz3iOGwO5C6OKhhtMM1nKiNrN88Fn8y3WVh/usQKP4yk
rcuYnMDyj2lnD8FOM8/8hV67Xs+TsM/Z9FJ5h7H4TRVoZdW3GQhjf16xNK0Fj1rw
5OGPJfJcXGGVsFYtMSsIZXnlsTudPrlSS6xdxFhmhY2BswQo9D8vrJIBYtX9jgva
Agx6x24JHKwcskzXVLgmM7JfFPOx+T1iTUCZa7bniViX1tRN6ktoUvM8qLE1iNsC
AwEAAaOBxDCBwTAdBgNVHQ4EFgQUod8zw88+U0GnaETMqhnhhMkNvMYwdAYDVR0j
BG0wa4AUtBEz8dfiXvdTniAiEE+GBr8fyV6hPaQ7MDkxCzAJBgNVBAYTAkFVMRcw
FQYDVQQKDA5Eb2RneSBCcm90aGVyczERMA8GA1UEAwwIRG9kZ3kgQ0GCFHs2d+Av
maWfncCkyDcoNSHl0QscMBIGA1UdEwEB/wQIMAYBAf8CAQEwCwYDVR0PBAQDAgEG
MAkGA1UdEgQCMAAwDQYJKoZIhvcNAQEFBQADggEBACga3PMtdylDxFuWlONAciux
44J5JgCTiSxbo8nDiJczyiTsdFd+MqW+a7qzJaUA6z12rQGbcQyisgW0sWsMsHCN
witep26UVrvduIV4YhUQRY+DpLVfk7FamsEH0E/fj17xIzpavF6E9Vcf6vbJPL/t
JnJZxsX1+lVQV+7r9HmQ8+3Dyl2ZrzTQQXgw4PVodyYF0mhuK6oQ32+lNjYMG65W
kh8G3e97px3ohTTRyR+EE/oUTRVJRbY/NlzJ71rt9UrMNSlNjtKtTklPRGlz2r7i
MNrnAxgR/KomNKu2Va6kGX/Z2d+wTNcmBg9A34peeATFlapr1GjFb4AiwVBI/Cg=
-----END CERTIFICATE-----
