Certificate:
    Data:
        Version: 3 (0x2)
        Serial Number:
            0a:0d:a0:db:de:99:86:21:85:69:62:a9:46:e9:b5:14:83:0f:76:38
        Signature Algorithm: sha1WithRSAEncryption
        Issuer: C=AU, O=Dodgy Brothers, CN=Dodgy CA
        Validity
            Not Before: Mar  6 13:41:06 2023 GMT
            Not After : Mar  5 13:41:06 2024 GMT
        Subject: C=AU, O=Dodgy Brothers, CN=Brother 1, CN=nextupdate_utctime
        Subject Public Key Info:
            Public Key Algorithm: rsaEncryption
                Public-Key: (2048 bit)
                Modulus:
                    00:be:95:86:fa:71:4c:6a:ea:51:98:50:4b:99:a1:
                    2c:66:15:f3:60:f3:e1:ff:69:fb:ce:48:01:1d:fe:
                    e1:2c:38:b0:e3:bd:8f:4b:48:a7:7e:3a:c6:73:e3:
                    ab:bf:e1:da:6e:96:f5:fe:c3:e4:b4:a8:ad:bc:56:
                    34:d4:96:25:74:27:c3:10:db:35:10:25:1c:8e:4b:
                    81:9b:fb:42:04:7c:6f:3d:e2:38:6c:0e:e4:2e:8e:
                    2a:18:6d:30:cd:67:2a:23:6b:37:cf:05:9f:cc:b7:
                    59:58:7f:ba:c4:0a:3f:8c:a4:ad:cb:98:9c:c0:f2:
                    8f:69:67:0f:c1:4e:33:cf:fc:85:5e:bb:5e:cf:93:
                    b0:cf:d9:f4:52:79:87:b1:f8:4d:15:68:65:d5:b7:
                    19:08:63:7f:5e:b1:34:ad:05:8f:5a:f0:e4:e1:8f:
                    25:f2:5c:5c:61:95:b0:56:2d:31:2b:08:65:79:e5:
                    b1:3b:9d:3e:b9:52:4b:ac:5d:c4:58:66:85:8d:81:
                    b3:04:28:f4:3f:2f:ac:92:01:62:d5:fd:8e:0b:da:
                    02:0c:7a:c7:6e:09:1c:ac:1c:b2:4c:d7:54:b8:26:
                    33:b2:5f:14:f3:b1:f9:3d:62:4d:40:99:6b:b6:e7:
                    89:58:97:d6:d4:4d:ea:4b:68:52:f3:3c:a8:b1:35:
                    88:db
                Exponent: 65537 (0x10001)
        X509v3 extensions:
            X509v3 Subject Key Identifier: 
                A1:DF:33:C3:CF:3E:53:41:A7:68:44:CC:AA:19:E1:84:C9:0D:BC:C6
            X509v3 Authority Key Identifier: 
                keyid:B4:11:33:F1:D7:E2:5E:F7:53:9E:20:22:10:4F:86:06:BF:1F:C9:5E
                DirName:/C=AU/O=Dodgy Brothers/CN=Dodgy CA
                serial:7B:36:77:E0:2F:99:A5:9F:9D:C0:A4:C8:37:28:35:21:E5:D1:0B:1C
            X509v3 Basic Constraints: critical
                CA:TRUE, pathlen:1
            X509v3 Key Usage: 
                Certificate Sign, CRL Sign
            X509v3 Issuer Alternative Name: 
                <EMPTY>

    Signature Algorithm: sha1WithRSAEncryption
    Signature Value:
        40:0f:93:aa:dc:88:2d:a4:c1:32:05:d2:98:a3:75:b0:a9:34:
        a6:7b:4f:66:46:73:2b:44:2c:39:cd:75:b9:d2:08:39:40:21:
        a5:63:52:5c:7c:6b:41:01:2c:58:41:6a:cb:88:20:d7:cc:18:
        ca:40:61:b1:e8:eb:de:3d:f5:c1:c3:a3:bc:f0:91:ee:62:ea:
        e5:2e:16:fc:76:d9:f3:bf:c8:bf:b0:bd:e9:a7:8c:4e:de:5f:
        d9:bd:96:d2:78:79:60:6f:78:53:67:3f:08:ca:7c:48:35:73:
        68:e7:24:1e:96:72:76:e3:73:b2:9b:3d:53:f5:8d:61:64:8c:
        6e:9e:e7:9c:e3:17:2b:cf:7f:b4:d8:ce:35:df:9a:74:54:d1:
        4b:24:39:4a:57:16:f0:d5:e8:ea:c6:be:7f:76:a9:1b:36:10:
        57:06:9e:ca:96:a0:7a:4a:ff:c1:7e:57:58:41:ce:5c:78:0a:
        d6:57:e1:7e:be:fc:05:90:0d:2f:aa:49:34:b2:06:a0:1c:99:
        55:90:90:24:81:cb:46:5b:86:6b:1b:3a:eb:b1:59:20:f5:5d:
        15:82:37:52:4d:19:a6:ee:f0:48:23:45:66:1c:6b:95:c1:8e:
        85:3a:35:a9:e8:93:34:9c:68:5c:95:b3:e4:ee:ea:78:15:95:
        3c:5f:92:15
-----BEGIN CERTIFICATE-----
MIID4zCCAsugAwIBAgIUCg2g296ZhiGFaWKpRum1FIMPdjgwDQYJKoZIhvcNAQEF
BQAwOTELMAkGA1UEBhMCQVUxFzAVBgNVBAoMDkRvZGd5IEJyb3RoZXJzMREwDwYD
VQQDDAhEb2RneSBDQTAeFw0yMzAzMDYxMzQxMDZaFw0yNDAzMDUxMzQxMDZaMFcx
CzAJBgNVBAYTAkFVMRcwFQYDVQQKDA5Eb2RneSBCcm90aGVyczESMBAGA1UEAwwJ
QnJvdGhlciAxMRswGQYDVQQDDBJuZXh0dXBkYXRlX3V0Y3RpbWUwggEiMA0GCSqG
SIb3DQEBAQUAA4IBDwAwggEKAoIBAQC+lYb6cUxq6lGYUEuZoSxmFfNg8+H/afvO
SAEd/uEsOLDjvY9LSKd+OsZz46u/4dpulvX+w+S0qK28VjTUliV0J8MQ2zUQJRyO
S4Gb+0IEfG894jhsDuQujioYbTDNZyojazfPBZ/Mt1lYf7rECj+MpK3LmJzA8o9p
Zw/BTjPP/IVeu17Pk7DP2fRSeYex+E0VaGXVtxkIY39esTStBY9a8OThjyXyXFxh
lbBWLTErCGV55bE7nT65UkusXcRYZoWNgbMEKPQ/L6ySAWLV/Y4L2gIMesduCRys
HLJM11S4JjOyXxTzsfk9Yk1AmWu254lYl9bUTepLaFLzPKixNYjbAgMBAAGjgcQw
gcEwHQYDVR0OBBYEFKHfM8PPPlNBp2hEzKoZ4YTJDbzGMHQGA1UdIwRtMGuAFLQR
M/HX4l73U54gIhBPhga/H8leoT2kOzA5MQswCQYDVQQGEwJBVTEXMBUGA1UECgwO
RG9kZ3kgQnJvdGhlcnMxETAPBgNVBAMMCERvZGd5IENBghR7NnfgL5mln53ApMg3
KDUh5dELHDASBgNVHRMBAf8ECDAGAQH/AgEBMAsGA1UdDwQEAwIBBjAJBgNVHRIE
AjAAMA0GCSqGSIb3DQEBBQUAA4IBAQBAD5Oq3IgtpMEyBdKYo3WwqTSme09mRnMr
RCw5zXW50gg5QCGlY1JcfGtBASxYQWrLiCDXzBjKQGGx6OvePfXBw6O88JHuYurl
Lhb8dtnzv8i/sL3pp4xO3l/ZvZbSeHlgb3hTZz8IynxINXNo5yQelnJ243Oymz1T
9Y1hZIxunuec4xcrz3+02M4135p0VNFLJDlKVxbw1ejqxr5/dqkbNhBXBp7KlqB6
Sv/BfldYQc5ceArWV+F+vvwFkA0vqkk0sgagHJlVkJAkgctGW4ZrGzrrsVkg9V0V
gjdSTRmm7vBII0VmHGuVwY6FOjWp6JM0nGhclbPk7up4FZU8X5IV
-----END CERTIFICATE-----
