Certificate:
    Data:
        Version: 3 (0x2)
        Serial Number:
            0a:0d:a0:db:de:99:86:21:85:69:62:a9:46:e9:b5:14:83:0f:76:3a
        Signature Algorithm: sha1WithRSAEncryption
        Issuer: C=AU, O=Dodgy Brothers, CN=Dodgy CA
        Validity
            Not Before: Mar  6 13:41:08 2023 GMT
            Not After : Mar  5 13:41:08 2024 GMT
        Subject: C=AU, O=Dodgy Brothers, CN=Brother 1, CN=both_utctime
        Subject Public Key Info:
            Public Key Algorithm: rsaEncryption
                Public-Key: (2048 bit)
                Modulus:
                    00:be:95:86:fa:71:4c:6a:ea:51:98:50:4b:99:a1:
                    2c:66:15:f3:60:f3:e1:ff:69:fb:ce:48:01:1d:fe:
                    e1:2c:38:b0:e3:bd:8f:4b:48:a7:7e:3a:c6:73:e3:
                    ab:bf:e1:da:6e:96:f5:fe:c3:e4:b4:a8:ad:bc:56:
                    34:d4:96:25:74:27:c3:10:db:35:10:25:1c:8e:4b:
                    81:9b:fb:42:04:7c:6f:3d:e2:38:6c:0e:e4:2e:8e:
                    2a:18:6d:30:cd:67:2a:23:6b:37:cf:05:9f:cc:b7:
                    59:58:7f:ba:c4:0a:3f:8c:a4:ad:cb:98:9c:c0:f2:
                    8f:69:67:0f:c1:4e:33:cf:fc:85:5e:bb:5e:cf:93:
                    b0:cf:d9:f4:52:79:87:b1:f8:4d:15:68:65:d5:b7:
                    19:08:63:7f:5e:b1:34:ad:05:8f:5a:f0:e4:e1:8f:
                    25:f2:5c:5c:61:95:b0:56:2d:31:2b:08:65:79:e5:
                    b1:3b:9d:3e:b9:52:4b:ac:5d:c4:58:66:85:8d:81:
                    b3:04:28:f4:3f:2f:ac:92:01:62:d5:fd:8e:0b:da:
                    02:0c:7a:c7:6e:09:1c:ac:1c:b2:4c:d7:54:b8:26:
                    33:b2:5f:14:f3:b1:f9:3d:62:4d:40:99:6b:b6:e7:
                    89:58:97:d6:d4:4d:ea:4b:68:52:f3:3c:a8:b1:35:
                    88:db
                Exponent: 65537 (0x10001)
        X509v3 extensions:
            X509v3 Subject Key Identifier: 
                A1:DF:33:C3:CF:3E:53:41:A7:68:44:CC:AA:19:E1:84:C9:0D:BC:C6
            X509v3 Authority Key Identifier: 
                keyid:B4:11:33:F1:D7:E2:5E:F7:53:9E:20:22:10:4F:86:06:BF:1F:C9:5E
                DirName:/C=AU/O=Dodgy Brothers/CN=Dodgy CA
                serial:7B:36:77:E0:2F:99:A5:9F:9D:C0:A4:C8:37:28:35:21:E5:D1:0B:1C
            X509v3 Basic Constraints: critical
                CA:TRUE, pathlen:1
            X509v3 Key Usage: 
                Certificate Sign, CRL Sign
            X509v3 Issuer Alternative Name: 
                <EMPTY>

    Signature Algorithm: sha1WithRSAEncryption
    Signature Value:
        8c:db:7d:e9:5e:1a:16:6f:50:31:a2:22:55:a2:76:90:a4:9c:
        ab:d6:6c:fc:df:31:09:75:7d:14:4e:82:20:06:ef:35:63:f7:
        9c:6a:e8:e2:cc:fa:38:24:03:d8:0b:5e:a4:bc:82:5a:0b:08:
        f0:5b:09:ae:27:da:36:b2:e4:2b:1b:29:e1:44:d5:84:25:77:
        61:f8:f1:8d:b5:f3:a6:6e:4e:8f:16:8e:b2:62:63:66:98:ff:
        3a:c2:72:5e:35:6b:67:76:de:b8:ad:a7:6f:eb:08:23:26:78:
        d6:41:82:0c:7b:3d:54:d2:24:27:25:11:b5:92:2a:af:b5:c6:
        58:95:74:89:30:d8:7f:27:d1:e4:c0:8e:8e:9a:61:c6:06:39:
        ca:2e:56:86:75:eb:70:dd:4c:85:84:48:6c:ba:e5:39:9a:45:
        0b:73:55:74:d2:c3:33:ad:05:15:5e:04:27:15:e8:00:47:0a:
        8c:ea:5d:04:f8:b3:d5:85:fc:5c:19:df:27:15:39:4c:1e:91:
        a1:44:05:ce:be:a6:f4:76:65:b0:7b:0c:48:96:34:33:50:ab:
        78:e3:a9:7c:06:4c:7b:25:32:8c:68:53:30:43:d2:8f:c3:7b:
        ec:22:29:3f:34:d8:00:56:d5:86:c4:0e:95:9a:9b:b9:c0:ee:
        5c:b1:20:44
-----BEGIN CERTIFICATE-----
MIID3TCCAsWgAwIBAgIUCg2g296ZhiGFaWKpRum1FIMPdjowDQYJKoZIhvcNAQEF
BQAwOTELMAkGA1UEBhMCQVUxFzAVBgNVBAoMDkRvZGd5IEJyb3RoZXJzMREwDwYD
VQQDDAhEb2RneSBDQTAeFw0yMzAzMDYxMzQxMDhaFw0yNDAzMDUxMzQxMDhaMFEx
CzAJBgNVBAYTAkFVMRcwFQYDVQQKDA5Eb2RneSBCcm90aGVyczESMBAGA1UEAwwJ
QnJvdGhlciAxMRUwEwYDVQQDDAxib3RoX3V0Y3RpbWUwggEiMA0GCSqGSIb3DQEB
AQUAA4IBDwAwggEKAoIBAQC+lYb6cUxq6lGYUEuZoSxmFfNg8+H/afvOSAEd/uEs
OLDjvY9LSKd+OsZz46u/4dpulvX+w+S0qK28VjTUliV0J8MQ2zUQJRyOS4Gb+0IE
fG894jhsDuQujioYbTDNZyojazfPBZ/Mt1lYf7rECj+MpK3LmJzA8o9pZw/BTjPP
/IVeu17Pk7DP2fRSeYex+E0VaGXVtxkIY39esTStBY9a8OThjyXyXFxhlbBWLTEr
CGV55bE7nT65UkusXcRYZoWNgbMEKPQ/L6ySAWLV/Y4L2gIMesduCRysHLJM11S4
JjOyXxTzsfk9Yk1AmWu254lYl9bUTepLaFLzPKixNYjbAgMBAAGjgcQwgcEwHQYD
VR0OBBYEFKHfM8PPPlNBp2hEzKoZ4YTJDbzGMHQGA1UdIwRtMGuAFLQRM/HX4l73
U54gIhBPhga/H8leoT2kOzA5MQswCQYDVQQGEwJBVTEXMBUGA1UECgwORG9kZ3kg
QnJvdGhlcnMxETAPBgNVBAMMCERvZGd5IENBghR7NnfgL5mln53ApMg3KDUh5dEL
HDASBgNVHRMBAf8ECDAGAQH/AgEBMAsGA1UdDwQEAwIBBjAJBgNVHRIEAjAAMA0G
CSqGSIb3DQEBBQUAA4IBAQCM233pXhoWb1AxoiJVonaQpJyr1mz83zEJdX0UToIg
Bu81Y/ecaujizPo4JAPYC16kvIJaCwjwWwmuJ9o2suQrGynhRNWEJXdh+PGNtfOm
bk6PFo6yYmNmmP86wnJeNWtndt64radv6wgjJnjWQYIMez1U0iQnJRG1kiqvtcZY
lXSJMNh/J9HkwI6OmmHGBjnKLlaGdetw3UyFhEhsuuU5mkULc1V00sMzrQUVXgQn
FegARwqM6l0E+LPVhfxcGd8nFTlMHpGhRAXOvqb0dmWwewxIljQzUKt446l8Bkx7
JTKMaFMwQ9KPw3vsIik/NNgAVtWGxA6Vmpu5wO5csSBE
-----END CERTIFICATE-----
