Certificate:
    Data:
        Version: 3 (0x2)
        Serial Number:
            7b:36:77:e0:2f:99:a5:9f:9d:c0:a4:c8:37:28:35:21:e5:d1:0b:1c
        Signature Algorithm: sha1WithRSAEncryption
        Issuer: C=AU, O=Dodgy Brothers, CN=Dodgy CA
        Validity
            Not Before: Mar  6 13:41:02 2023 GMT
            Not After : Mar  5 13:41:02 2026 GMT
        Subject: C=AU, O=Dodgy Brothers, CN=Dodgy CA
        Subject Public Key Info:
            Public Key Algorithm: rsaEncryption
                Public-Key: (2048 bit)
                Modulus:
                    00:96:9d:a4:3d:00:4b:1c:5f:c6:cb:dd:8f:d2:31:
                    b2:88:15:cc:c4:86:2c:5c:e2:69:8b:84:f4:a7:a3:
                    53:df:91:e3:bf:51:89:fb:f0:7c:10:0d:3b:ad:ac:
                    35:62:75:f5:7f:ff:f4:6e:54:8f:05:a6:92:23:b3:
                    9f:59:39:d0:39:18:b0:10:40:de:62:73:8a:4e:b0:
                    8e:df:dc:e7:c9:41:22:54:84:80:08:29:bc:35:3c:
                    86:df:30:de:dd:b4:24:ff:7e:62:a5:c0:7a:e8:2a:
                    16:3f:d6:97:da:c5:42:db:2f:69:64:91:cb:08:d7:
                    56:5a:79:7f:1b:84:41:e9:4d:9d:77:09:10:a8:6c:
                    29:33:44:c6:c0:54:65:e6:e8:e3:f2:75:05:6a:64:
                    95:6c:c0:f4:fd:25:61:6e:48:36:f0:c0:03:07:05:
                    d6:7c:e5:11:fd:18:e8:4a:2d:d3:72:0c:37:28:36:
                    31:31:38:85:e8:71:8d:d8:02:49:c8:bc:19:89:c5:
                    8a:b1:3f:a2:35:ea:aa:90:1c:64:68:7b:af:67:6a:
                    5a:06:54:0f:50:e1:f9:b4:f6:be:3a:d4:ce:3f:1e:
                    4c:7d:c6:77:32:3e:a2:58:ed:db:dd:74:d8:92:14:
                    6a:a8:f7:cb:34:58:91:a8:7c:14:b1:7d:08:b3:4d:
                    b1:47
                Exponent: 65537 (0x10001)
        X509v3 extensions:
            X509v3 Subject Key Identifier: 
                B4:11:33:F1:D7:E2:5E:F7:53:9E:20:22:10:4F:86:06:BF:1F:C9:5E
            X509v3 Authority Key Identifier: 
                keyid:B4:11:33:F1:D7:E2:5E:F7:53:9E:20:22:10:4F:86:06:BF:1F:C9:5E
                DirName:/C=AU/O=Dodgy Brothers/CN=Dodgy CA
                serial:7B:36:77:E0:2F:99:A5:9F:9D:C0:A4:C8:37:28:35:21:E5:D1:0B:1C
            X509v3 Basic Constraints: critical
                CA:TRUE, pathlen:1
            X509v3 Key Usage: 
                Certificate Sign, CRL Sign
            X509v3 Issuer Alternative Name: 
                <EMPTY>

    Signature Algorithm: sha1WithRSAEncryption
    Signature Value:
        21:43:f9:37:c6:31:31:05:cf:6c:7d:99:c6:7d:d5:62:3e:8f:
        69:15:5a:9d:b8:26:a6:db:fc:ac:86:5f:b4:b8:b9:da:23:ba:
        cc:9e:37:ce:29:2c:45:8e:13:e7:8c:cb:5f:9a:8e:1a:55:9f:
        5b:49:39:6b:81:e7:bd:9a:d4:df:d3:34:d8:8c:81:dc:78:6d:
        d8:62:9b:36:7a:aa:24:1e:10:4e:3a:c6:8b:1a:53:0f:24:c6:
        60:9f:70:d1:6e:34:06:ba:59:f0:77:bb:b8:5f:ed:6c:67:6a:
        6f:51:09:5a:96:80:a1:5a:16:ad:af:14:7e:b8:fd:12:5d:4f:
        25:01:82:4e:03:cb:51:3c:7a:69:83:22:00:df:aa:67:53:ba:
        62:fa:df:0e:d7:c7:06:17:0d:4a:4e:86:81:b2:cf:cb:30:36:
        51:b1:60:49:5a:2b:b9:47:9c:bd:92:a5:50:30:0f:6b:9e:76:
        99:0f:9c:9d:73:45:50:2b:5a:11:f1:c1:4c:97:14:13:6b:06:
        fa:35:3c:2f:f4:1d:36:6e:2e:d4:fc:ae:40:79:75:e2:30:0c:
        bb:4a:b3:ea:66:64:e4:3e:26:7d:66:5a:8f:2e:e5:43:e1:71:
        45:00:c4:e4:fc:57:8c:40:00:a9:1b:ae:5e:12:1a:36:20:45:
        d1:54:7b:69
-----BEGIN CERTIFICATE-----
MIIDxTCCAq2gAwIBAgIUezZ34C+ZpZ+dwKTINyg1IeXRCxwwDQYJKoZIhvcNAQEF
BQAwOTELMAkGA1UEBhMCQVUxFzAVBgNVBAoMDkRvZGd5IEJyb3RoZXJzMREwDwYD
VQQDDAhEb2RneSBDQTAeFw0yMzAzMDYxMzQxMDJaFw0yNjAzMDUxMzQxMDJaMDkx
CzAJBgNVBAYTAkFVMRcwFQYDVQQKDA5Eb2RneSBCcm90aGVyczERMA8GA1UEAwwI
RG9kZ3kgQ0EwggEiMA0GCSqGSIb3DQEBAQUAA4IBDwAwggEKAoIBAQCWnaQ9AEsc
X8bL3Y/SMbKIFczEhixc4mmLhPSno1PfkeO/UYn78HwQDTutrDVidfV///RuVI8F
ppIjs59ZOdA5GLAQQN5ic4pOsI7f3OfJQSJUhIAIKbw1PIbfMN7dtCT/fmKlwHro
KhY/1pfaxULbL2lkkcsI11ZaeX8bhEHpTZ13CRCobCkzRMbAVGXm6OPydQVqZJVs
wPT9JWFuSDbwwAMHBdZ85RH9GOhKLdNyDDcoNjExOIXocY3YAknIvBmJxYqxP6I1
6qqQHGRoe69naloGVA9Q4fm09r461M4/Hkx9xncyPqJY7dvddNiSFGqo98s0WJGo
fBSxfQizTbFHAgMBAAGjgcQwgcEwHQYDVR0OBBYEFLQRM/HX4l73U54gIhBPhga/
H8leMHQGA1UdIwRtMGuAFLQRM/HX4l73U54gIhBPhga/H8leoT2kOzA5MQswCQYD
VQQGEwJBVTEXMBUGA1UECgwORG9kZ3kgQnJvdGhlcnMxETAPBgNVBAMMCERvZGd5
IENBghR7NnfgL5mln53ApMg3KDUh5dELHDASBgNVHRMBAf8ECDAGAQH/AgEBMAsG
A1UdDwQEAwIBBjAJBgNVHRIEAjAAMA0GCSqGSIb3DQEBBQUAA4IBAQAhQ/k3xjEx
Bc9sfZnGfdViPo9pFVqduCam2/yshl+0uLnaI7rMnjfOKSxFjhPnjMtfmo4aVZ9b
STlrgee9mtTf0zTYjIHceG3YYps2eqokHhBOOsaLGlMPJMZgn3DRbjQGulnwd7u4
X+1sZ2pvUQlaloChWhatrxR+uP0SXU8lAYJOA8tRPHppgyIA36pnU7pi+t8O18cG
Fw1KToaBss/LMDZRsWBJWiu5R5y9kqVQMA9rnnaZD5ydc0VQK1oR8cFMlxQTawb6
NTwv9B02bi7U/K5AeXXiMAy7SrPqZmTkPiZ9ZlqPLuVD4XFFAMTk/FeMQACpG65e
Eho2IEXRVHtp
-----END CERTIFICATE-----
