Certificate:
    Data:
        Version: 3 (0x2)
        Serial Number:
            0a:0d:a0:db:de:99:86:21:85:69:62:a9:46:e9:b5:14:83:0f:76:3b
        Signature Algorithm: sha1WithRSAEncryption
        Issuer: C=AU, O=Dodgy Brothers, CN=Dodgy CA
        Validity
            Not Before: Mar  6 13:41:08 2023 GMT
            Not After : Mar  5 13:41:08 2024 GMT
        Subject: C=AU, O=Dodgy Brothers, CN=Brother 1, CN=both_generalizedtime
        Subject Public Key Info:
            Public Key Algorithm: rsaEncryption
                Public-Key: (2048 bit)
                Modulus:
                    00:be:95:86:fa:71:4c:6a:ea:51:98:50:4b:99:a1:
                    2c:66:15:f3:60:f3:e1:ff:69:fb:ce:48:01:1d:fe:
                    e1:2c:38:b0:e3:bd:8f:4b:48:a7:7e:3a:c6:73:e3:
                    ab:bf:e1:da:6e:96:f5:fe:c3:e4:b4:a8:ad:bc:56:
                    34:d4:96:25:74:27:c3:10:db:35:10:25:1c:8e:4b:
                    81:9b:fb:42:04:7c:6f:3d:e2:38:6c:0e:e4:2e:8e:
                    2a:18:6d:30:cd:67:2a:23:6b:37:cf:05:9f:cc:b7:
                    59:58:7f:ba:c4:0a:3f:8c:a4:ad:cb:98:9c:c0:f2:
                    8f:69:67:0f:c1:4e:33:cf:fc:85:5e:bb:5e:cf:93:
                    b0:cf:d9:f4:52:79:87:b1:f8:4d:15:68:65:d5:b7:
                    19:08:63:7f:5e:b1:34:ad:05:8f:5a:f0:e4:e1:8f:
                    25:f2:5c:5c:61:95:b0:56:2d:31:2b:08:65:79:e5:
                    b1:3b:9d:3e:b9:52:4b:ac:5d:c4:58:66:85:8d:81:
                    b3:04:28:f4:3f:2f:ac:92:01:62:d5:fd:8e:0b:da:
                    02:0c:7a:c7:6e:09:1c:ac:1c:b2:4c:d7:54:b8:26:
                    33:b2:5f:14:f3:b1:f9:3d:62:4d:40:99:6b:b6:e7:
                    89:58:97:d6:d4:4d:ea:4b:68:52:f3:3c:a8:b1:35:
                    88:db
                Exponent: 65537 (0x10001)
        X509v3 extensions:
            X509v3 Subject Key Identifier: 
                A1:DF:33:C3:CF:3E:53:41:A7:68:44:CC:AA:19:E1:84:C9:0D:BC:C6
            X509v3 Authority Key Identifier: 
                keyid:B4:11:33:F1:D7:E2:5E:F7:53:9E:20:22:10:4F:86:06:BF:1F:C9:5E
                DirName:/C=AU/O=Dodgy Brothers/CN=Dodgy CA
                serial:7B:36:77:E0:2F:99:A5:9F:9D:C0:A4:C8:37:28:35:21:E5:D1:0B:1C
            X509v3 Basic Constraints: critical
                CA:TRUE, pathlen:1
            X509v3 Key Usage: 
                Certificate Sign, CRL Sign
            X509v3 Issuer Alternative Name: 
                <EMPTY>

    Signature Algorithm: sha1WithRSAEncryption
    Signature Value:
        50:b2:3a:a3:43:8b:93:b2:3c:45:d1:a6:03:7f:98:d3:2d:a3:
        8c:7a:d6:d5:46:84:38:e2:9b:8d:b0:01:fa:57:4b:d4:27:b5:
        50:fc:29:33:3e:9b:03:f6:9f:ea:68:28:92:30:a0:b1:96:95:
        7d:75:d2:db:69:ff:75:0c:64:01:3c:79:39:7f:1c:01:5a:76:
        68:6f:78:d1:f5:19:fc:9c:a8:c4:61:ca:8b:ad:3b:b9:cf:3c:
        0f:87:bd:58:b1:1b:a7:da:24:8b:2e:28:07:e8:29:b6:cf:4c:
        55:bd:8d:83:46:bb:e7:8e:8d:b2:94:02:d3:fc:84:28:36:6c:
        56:62:8f:ab:05:55:72:d5:06:2a:73:f0:d2:01:1e:d2:d4:40:
        e3:0d:9b:71:62:84:c6:8c:1a:f8:8c:99:52:4f:99:90:58:1b:
        c4:fb:53:51:a1:1c:b3:c3:df:ec:59:cc:5a:bf:e1:4a:0d:b9:
        0d:1e:08:c2:2b:aa:7d:61:54:e3:2d:78:e9:c8:1b:ed:1f:52:
        56:21:94:61:e2:ff:c8:a0:1f:e3:3a:47:10:1e:29:db:d0:38:
        5b:bc:f4:1c:53:1d:1f:7d:29:a8:33:92:95:d6:b4:1c:75:d5:
        a0:f3:62:9b:45:32:a9:b3:de:5a:bf:a6:5e:19:2a:5c:fe:4e:
        de:72:0b:96
-----BEGIN CERTIFICATE-----
MIID5TCCAs2gAwIBAgIUCg2g296ZhiGFaWKpRum1FIMPdjswDQYJKoZIhvcNAQEF
BQAwOTELMAkGA1UEBhMCQVUxFzAVBgNVBAoMDkRvZGd5IEJyb3RoZXJzMREwDwYD
VQQDDAhEb2RneSBDQTAeFw0yMzAzMDYxMzQxMDhaFw0yNDAzMDUxMzQxMDhaMFkx
CzAJBgNVBAYTAkFVMRcwFQYDVQQKDA5Eb2RneSBCcm90aGVyczESMBAGA1UEAwwJ
QnJvdGhlciAxMR0wGwYDVQQDDBRib3RoX2dlbmVyYWxpemVkdGltZTCCASIwDQYJ
KoZIhvcNAQEBBQADggEPADCCAQoCggEBAL6VhvpxTGrqUZhQS5mhLGYV82Dz4f9p
+85IAR3+4Sw4sOO9j0tIp346xnPjq7/h2m6W9f7D5LSorbxWNNSWJXQnwxDbNRAl
HI5LgZv7QgR8bz3iOGwO5C6OKhhtMM1nKiNrN88Fn8y3WVh/usQKP4ykrcuYnMDy
j2lnD8FOM8/8hV67Xs+TsM/Z9FJ5h7H4TRVoZdW3GQhjf16xNK0Fj1rw5OGPJfJc
XGGVsFYtMSsIZXnlsTudPrlSS6xdxFhmhY2BswQo9D8vrJIBYtX9jgvaAgx6x24J
HKwcskzXVLgmM7JfFPOx+T1iTUCZa7bniViX1tRN6ktoUvM8qLE1iNsCAwEAAaOB
xDCBwTAdBgNVHQ4EFgQUod8zw88+U0GnaETMqhnhhMkNvMYwdAYDVR0jBG0wa4AU
tBEz8dfiXvdTniAiEE+GBr8fyV6hPaQ7MDkxCzAJBgNVBAYTAkFVMRcwFQYDVQQK
DA5Eb2RneSBCcm90aGVyczERMA8GA1UEAwwIRG9kZ3kgQ0GCFHs2d+AvmaWfncCk
yDcoNSHl0QscMBIGA1UdEwEB/wQIMAYBAf8CAQEwCwYDVR0PBAQDAgEGMAkGA1Ud
EgQCMAAwDQYJKoZIhvcNAQEFBQADggEBAFCyOqNDi5OyPEXRpgN/mNMto4x61tVG
hDjim42wAfpXS9QntVD8KTM+mwP2n+poKJIwoLGWlX110ttp/3UMZAE8eTl/HAFa
dmhveNH1GfycqMRhyoutO7nPPA+HvVixG6faJIsuKAfoKbbPTFW9jYNGu+eOjbKU
AtP8hCg2bFZij6sFVXLVBipz8NIBHtLUQOMNm3FihMaMGviMmVJPmZBYG8T7U1Gh
HLPD3+xZzFq/4UoNuQ0eCMIrqn1hVOMteOnIG+0fUlYhlGHi/8igH+M6RxAeKdvQ
OFu89BxTHR99KagzkpXWtBx11aDzYptFMqmz3lq/pl4ZKlz+Tt5yC5Y=
-----END CERTIFICATE-----
