Certificate:
    Data:
        Version: 3 (0x2)
        Serial Number:
            0a:0d:a0:db:de:99:86:21:85:69:62:a9:46:e9:b5:14:83:0f:76:34
        Signature Algorithm: sha1WithRSAEncryption
        Issuer: C=AU, O=Dodgy Brothers, CN=Dodgy CA
        Validity
            Not Before: Mar  6 13:41:04 2023 GMT
            Not After : Mar  5 13:41:04 2024 GMT
        Subject: C=AU, O=Dodgy Brothers, CN=Brother 1, CN=lastupdate_invalid
        Subject Public Key Info:
            Public Key Algorithm: rsaEncryption
                Public-Key: (2048 bit)
                Modulus:
                    00:be:95:86:fa:71:4c:6a:ea:51:98:50:4b:99:a1:
                    2c:66:15:f3:60:f3:e1:ff:69:fb:ce:48:01:1d:fe:
                    e1:2c:38:b0:e3:bd:8f:4b:48:a7:7e:3a:c6:73:e3:
                    ab:bf:e1:da:6e:96:f5:fe:c3:e4:b4:a8:ad:bc:56:
                    34:d4:96:25:74:27:c3:10:db:35:10:25:1c:8e:4b:
                    81:9b:fb:42:04:7c:6f:3d:e2:38:6c:0e:e4:2e:8e:
                    2a:18:6d:30:cd:67:2a:23:6b:37:cf:05:9f:cc:b7:
                    59:58:7f:ba:c4:0a:3f:8c:a4:ad:cb:98:9c:c0:f2:
                    8f:69:67:0f:c1:4e:33:cf:fc:85:5e:bb:5e:cf:93:
                    b0:cf:d9:f4:52:79:87:b1:f8:4d:15:68:65:d5:b7:
                    19:08:63:7f:5e:b1:34:ad:05:8f:5a:f0:e4:e1:8f:
                    25:f2:5c:5c:61:95:b0:56:2d:31:2b:08:65:79:e5:
                    b1:3b:9d:3e:b9:52:4b:ac:5d:c4:58:66:85:8d:81:
                    b3:04:28:f4:3f:2f:ac:92:01:62:d5:fd:8e:0b:da:
                    02:0c:7a:c7:6e:09:1c:ac:1c:b2:4c:d7:54:b8:26:
                    33:b2:5f:14:f3:b1:f9:3d:62:4d:40:99:6b:b6:e7:
                    89:58:97:d6:d4:4d:ea:4b:68:52:f3:3c:a8:b1:35:
                    88:db
                Exponent: 65537 (0x10001)
        X509v3 extensions:
            X509v3 Subject Key Identifier: 
                A1:DF:33:C3:CF:3E:53:41:A7:68:44:CC:AA:19:E1:84:C9:0D:BC:C6
            X509v3 Authority Key Identifier: 
                keyid:B4:11:33:F1:D7:E2:5E:F7:53:9E:20:22:10:4F:86:06:BF:1F:C9:5E
                DirName:/C=AU/O=Dodgy Brothers/CN=Dodgy CA
                serial:7B:36:77:E0:2F:99:A5:9F:9D:C0:A4:C8:37:28:35:21:E5:D1:0B:1C
            X509v3 Basic Constraints: critical
                CA:TRUE, pathlen:1
            X509v3 Key Usage: 
                Certificate Sign, CRL Sign
            X509v3 Issuer Alternative Name: 
                <EMPTY>

    Signature Algorithm: sha1WithRSAEncryption
    Signature Value:
        32:1a:57:c1:d5:75:00:14:b9:99:d7:3b:f7:09:61:2d:59:b9:
        ad:aa:1a:6b:33:d0:38:4c:1c:8a:42:97:d4:9a:a5:d2:c2:2d:
        f1:e6:27:40:4c:97:f1:d0:43:cc:e2:9b:13:1b:ee:6a:47:78:
        65:d8:f5:69:75:0d:db:11:44:d0:09:57:e5:1b:c0:95:69:8d:
        f8:58:3f:57:45:a6:47:2e:f1:69:8a:47:43:02:bd:a6:e7:8b:
        a5:79:80:a4:97:15:2e:7f:52:fd:f5:64:b0:a9:a7:36:99:a2:
        9b:1d:87:ae:02:f0:0b:d0:8b:1b:49:dc:c7:53:8e:86:6a:e8:
        26:80:fa:5e:d5:cd:a7:e5:cb:4d:5f:88:7f:fe:cf:d7:96:75:
        7f:9b:eb:f1:99:4c:83:84:5a:29:f9:9a:2b:9d:af:06:0d:92:
        dd:63:f4:12:7e:2c:cf:bd:c0:ee:36:1c:47:e3:df:27:84:0d:
        83:b3:79:4d:b6:ac:cb:fe:ed:e9:c4:51:18:aa:43:ef:d0:22:
        79:0f:cb:6e:a4:13:85:cd:68:91:e4:03:0c:8b:a8:15:1f:f8:
        47:fd:db:5b:2e:91:0d:bf:41:9d:7f:b5:af:3a:e1:aa:f5:41:
        20:b2:6a:08:56:0f:3a:3b:ae:d5:77:a5:36:93:29:e4:96:cf:
        09:6c:3f:09
-----BEGIN CERTIFICATE-----
MIID4zCCAsugAwIBAgIUCg2g296ZhiGFaWKpRum1FIMPdjQwDQYJKoZIhvcNAQEF
BQAwOTELMAkGA1UEBhMCQVUxFzAVBgNVBAoMDkRvZGd5IEJyb3RoZXJzMREwDwYD
VQQDDAhEb2RneSBDQTAeFw0yMzAzMDYxMzQxMDRaFw0yNDAzMDUxMzQxMDRaMFcx
CzAJBgNVBAYTAkFVMRcwFQYDVQQKDA5Eb2RneSBCcm90aGVyczESMBAGA1UEAwwJ
QnJvdGhlciAxMRswGQYDVQQDDBJsYXN0dXBkYXRlX2ludmFsaWQwggEiMA0GCSqG
SIb3DQEBAQUAA4IBDwAwggEKAoIBAQC+lYb6cUxq6lGYUEuZoSxmFfNg8+H/afvO
SAEd/uEsOLDjvY9LSKd+OsZz46u/4dpulvX+w+S0qK28VjTUliV0J8MQ2zUQJRyO
S4Gb+0IEfG894jhsDuQujioYbTDNZyojazfPBZ/Mt1lYf7rECj+MpK3LmJzA8o9p
Zw/BTjPP/IVeu17Pk7DP2fRSeYex+E0VaGXVtxkIY39esTStBY9a8OThjyXyXFxh
lbBWLTErCGV55bE7nT65UkusXcRYZoWNgbMEKPQ/L6ySAWLV/Y4L2gIMesduCRys
HLJM11S4JjOyXxTzsfk9Yk1AmWu254lYl9bUTepLaFLzPKixNYjbAgMBAAGjgcQw
gcEwHQYDVR0OBBYEFKHfM8PPPlNBp2hEzKoZ4YTJDbzGMHQGA1UdIwRtMGuAFLQR
M/HX4l73U54gIhBPhga/H8leoT2kOzA5MQswCQYDVQQGEwJBVTEXMBUGA1UECgwO
RG9kZ3kgQnJvdGhlcnMxETAPBgNVBAMMCERvZGd5IENBghR7NnfgL5mln53ApMg3
KDUh5dELHDASBgNVHRMBAf8ECDAGAQH/AgEBMAsGA1UdDwQEAwIBBjAJBgNVHRIE
AjAAMA0GCSqGSIb3DQEBBQUAA4IBAQAyGlfB1XUAFLmZ1zv3CWEtWbmtqhprM9A4
TByKQpfUmqXSwi3x5idATJfx0EPM4psTG+5qR3hl2PVpdQ3bEUTQCVflG8CVaY34
WD9XRaZHLvFpikdDAr2m54uleYCklxUuf1L99WSwqac2maKbHYeuAvAL0IsbSdzH
U46GaugmgPpe1c2n5ctNX4h//s/XlnV/m+vxmUyDhFop+Zorna8GDZLdY/QSfizP
vcDuNhxH498nhA2Ds3lNtqzL/u3pxFEYqkPv0CJ5D8tupBOFzWiR5AMMi6gVH/hH
/dtbLpENv0Gdf7WvOuGq9UEgsmoIVg86O67Vd6U2kynkls8JbD8J
-----END CERTIFICATE-----
