Certificate:
    Data:
        Version: 3 (0x2)
        Serial Number:
            0a:0d:a0:db:de:99:86:21:85:69:62:a9:46:e9:b5:14:83:0f:76:35
        Signature Algorithm: sha1WithRSAEncryption
        Issuer: C=AU, O=Dodgy Brothers, CN=Dodgy CA
        Validity
            Not Before: Mar  6 13:41:05 2023 GMT
            Not After : Mar  5 13:41:05 2024 GMT
        Subject: C=AU, O=Dodgy Brothers, CN=Brother 1, CN=lastupdate_utctime
        Subject Public Key Info:
            Public Key Algorithm: rsaEncryption
                Public-Key: (2048 bit)
                Modulus:
                    00:be:95:86:fa:71:4c:6a:ea:51:98:50:4b:99:a1:
                    2c:66:15:f3:60:f3:e1:ff:69:fb:ce:48:01:1d:fe:
                    e1:2c:38:b0:e3:bd:8f:4b:48:a7:7e:3a:c6:73:e3:
                    ab:bf:e1:da:6e:96:f5:fe:c3:e4:b4:a8:ad:bc:56:
                    34:d4:96:25:74:27:c3:10:db:35:10:25:1c:8e:4b:
                    81:9b:fb:42:04:7c:6f:3d:e2:38:6c:0e:e4:2e:8e:
                    2a:18:6d:30:cd:67:2a:23:6b:37:cf:05:9f:cc:b7:
                    59:58:7f:ba:c4:0a:3f:8c:a4:ad:cb:98:9c:c0:f2:
                    8f:69:67:0f:c1:4e:33:cf:fc:85:5e:bb:5e:cf:93:
                    b0:cf:d9:f4:52:79:87:b1:f8:4d:15:68:65:d5:b7:
                    19:08:63:7f:5e:b1:34:ad:05:8f:5a:f0:e4:e1:8f:
                    25:f2:5c:5c:61:95:b0:56:2d:31:2b:08:65:79:e5:
                    b1:3b:9d:3e:b9:52:4b:ac:5d:c4:58:66:85:8d:81:
                    b3:04:28:f4:3f:2f:ac:92:01:62:d5:fd:8e:0b:da:
                    02:0c:7a:c7:6e:09:1c:ac:1c:b2:4c:d7:54:b8:26:
                    33:b2:5f:14:f3:b1:f9:3d:62:4d:40:99:6b:b6:e7:
                    89:58:97:d6:d4:4d:ea:4b:68:52:f3:3c:a8:b1:35:
                    88:db
                Exponent: 65537 (0x10001)
        X509v3 extensions:
            X509v3 Subject Key Identifier: 
                A1:DF:33:C3:CF:3E:53:41:A7:68:44:CC:AA:19:E1:84:C9:0D:BC:C6
            X509v3 Authority Key Identifier: 
                keyid:B4:11:33:F1:D7:E2:5E:F7:53:9E:20:22:10:4F:86:06:BF:1F:C9:5E
                DirName:/C=AU/O=Dodgy Brothers/CN=Dodgy CA
                serial:7B:36:77:E0:2F:99:A5:9F:9D:C0:A4:C8:37:28:35:21:E5:D1:0B:1C
            X509v3 Basic Constraints: critical
                CA:TRUE, pathlen:1
            X509v3 Key Usage: 
                Certificate Sign, CRL Sign
            X509v3 Issuer Alternative Name: 
                <EMPTY>

    Signature Algorithm: sha1WithRSAEncryption
    Signature Value:
        27:53:9f:72:36:b9:c0:1d:f4:15:75:7c:72:d9:21:02:38:28:
        d6:0a:45:91:13:d5:06:13:83:61:81:16:ed:0e:66:42:22:73:
        bd:15:0f:f6:97:34:3f:6e:fd:b3:5b:38:88:95:32:82:e0:fd:
        eb:d5:17:a4:f5:8b:1c:eb:c2:b0:44:e2:ef:4d:7e:a6:9d:24:
        6d:f9:09:98:61:d6:25:67:f0:7f:5a:fb:36:1c:74:a6:c7:27:
        90:a3:c7:25:94:25:8d:5f:46:2d:6c:97:50:43:22:ac:81:a3:
        57:79:7f:13:26:60:7f:dd:bb:e5:7f:d8:3a:8e:0a:84:4b:16:
        27:3e:a2:5c:04:44:e0:98:2c:b3:e1:b4:6e:cb:ca:08:e5:a7:
        d9:5d:bf:1b:7b:56:1b:c9:fa:b7:7f:24:e6:14:9d:8a:c8:1b:
        b4:d8:7a:d5:de:dc:f9:af:1c:61:33:98:78:63:75:c7:b2:33:
        9f:62:f7:a4:c8:6b:e3:2a:1e:63:d6:05:fe:fc:4d:db:b3:e4:
        5b:3c:ec:25:f6:2b:b9:06:0f:aa:8e:7b:d4:45:dd:5d:b4:38:
        73:a6:7f:35:98:a1:ec:c4:d5:c9:b2:c9:07:c3:38:83:66:fe:
        9f:cf:34:a5:5a:8c:1e:42:d0:cc:17:1e:d7:f3:4a:7b:ff:29:
        fa:ad:85:01
-----BEGIN CERTIFICATE-----
MIID4zCCAsugAwIBAgIUCg2g296ZhiGFaWKpRum1FIMPdjUwDQYJKoZIhvcNAQEF
BQAwOTELMAkGA1UEBhMCQVUxFzAVBgNVBAoMDkRvZGd5IEJyb3RoZXJzMREwDwYD
VQQDDAhEb2RneSBDQTAeFw0yMzAzMDYxMzQxMDVaFw0yNDAzMDUxMzQxMDVaMFcx
CzAJBgNVBAYTAkFVMRcwFQYDVQQKDA5Eb2RneSBCcm90aGVyczESMBAGA1UEAwwJ
QnJvdGhlciAxMRswGQYDVQQDDBJsYXN0dXBkYXRlX3V0Y3RpbWUwggEiMA0GCSqG
SIb3DQEBAQUAA4IBDwAwggEKAoIBAQC+lYb6cUxq6lGYUEuZoSxmFfNg8+H/afvO
SAEd/uEsOLDjvY9LSKd+OsZz46u/4dpulvX+w+S0qK28VjTUliV0J8MQ2zUQJRyO
S4Gb+0IEfG894jhsDuQujioYbTDNZyojazfPBZ/Mt1lYf7rECj+MpK3LmJzA8o9p
Zw/BTjPP/IVeu17Pk7DP2fRSeYex+E0VaGXVtxkIY39esTStBY9a8OThjyXyXFxh
lbBWLTErCGV55bE7nT65UkusXcRYZoWNgbMEKPQ/L6ySAWLV/Y4L2gIMesduCRys
HLJM11S4JjOyXxTzsfk9Yk1AmWu254lYl9bUTepLaFLzPKixNYjbAgMBAAGjgcQw
gcEwHQYDVR0OBBYEFKHfM8PPPlNBp2hEzKoZ4YTJDbzGMHQGA1UdIwRtMGuAFLQR
M/HX4l73U54gIhBPhga/H8leoT2kOzA5MQswCQYDVQQGEwJBVTEXMBUGA1UECgwO
RG9kZ3kgQnJvdGhlcnMxETAPBgNVBAMMCERvZGd5IENBghR7NnfgL5mln53ApMg3
KDUh5dELHDASBgNVHRMBAf8ECDAGAQH/AgEBMAsGA1UdDwQEAwIBBjAJBgNVHRIE
AjAAMA0GCSqGSIb3DQEBBQUAA4IBAQAnU59yNrnAHfQVdXxy2SECOCjWCkWRE9UG
E4NhgRbtDmZCInO9FQ/2lzQ/bv2zWziIlTKC4P3r1Rek9Ysc68KwROLvTX6mnSRt
+QmYYdYlZ/B/Wvs2HHSmxyeQo8cllCWNX0YtbJdQQyKsgaNXeX8TJmB/3bvlf9g6
jgqESxYnPqJcBETgmCyz4bRuy8oI5afZXb8be1Ybyfq3fyTmFJ2KyBu02HrV3tz5
rxxhM5h4Y3XHsjOfYvekyGvjKh5j1gX+/E3bs+RbPOwl9iu5Bg+qjnvURd1dtDhz
pn81mKHsxNXJsskHwziDZv6fzzSlWoweQtDMFx7X80p7/yn6rYUB
-----END CERTIFICATE-----
