Certificate:
    Data:
        Version: 3 (0x2)
        Serial Number:
            0a:0d:a0:db:de:99:86:21:85:69:62:a9:46:e9:b5:14:83:0f:76:33
        Signature Algorithm: sha1WithRSAEncryption
        Issuer: C=AU, O=Dodgy Brothers, CN=Dodgy CA
        Validity
            Not Before: Mar  6 13:41:04 2023 GMT
            Not After : Mar  5 13:41:04 2024 GMT
        Subject: C=AU, O=Dodgy Brothers, CN=Brother 1, CN=notimes
        Subject Public Key Info:
            Public Key Algorithm: rsaEncryption
                Public-Key: (2048 bit)
                Modulus:
                    00:be:95:86:fa:71:4c:6a:ea:51:98:50:4b:99:a1:
                    2c:66:15:f3:60:f3:e1:ff:69:fb:ce:48:01:1d:fe:
                    e1:2c:38:b0:e3:bd:8f:4b:48:a7:7e:3a:c6:73:e3:
                    ab:bf:e1:da:6e:96:f5:fe:c3:e4:b4:a8:ad:bc:56:
                    34:d4:96:25:74:27:c3:10:db:35:10:25:1c:8e:4b:
                    81:9b:fb:42:04:7c:6f:3d:e2:38:6c:0e:e4:2e:8e:
                    2a:18:6d:30:cd:67:2a:23:6b:37:cf:05:9f:cc:b7:
                    59:58:7f:ba:c4:0a:3f:8c:a4:ad:cb:98:9c:c0:f2:
                    8f:69:67:0f:c1:4e:33:cf:fc:85:5e:bb:5e:cf:93:
                    b0:cf:d9:f4:52:79:87:b1:f8:4d:15:68:65:d5:b7:
                    19:08:63:7f:5e:b1:34:ad:05:8f:5a:f0:e4:e1:8f:
                    25:f2:5c:5c:61:95:b0:56:2d:31:2b:08:65:79:e5:
                    b1:3b:9d:3e:b9:52:4b:ac:5d:c4:58:66:85:8d:81:
                    b3:04:28:f4:3f:2f:ac:92:01:62:d5:fd:8e:0b:da:
                    02:0c:7a:c7:6e:09:1c:ac:1c:b2:4c:d7:54:b8:26:
                    33:b2:5f:14:f3:b1:f9:3d:62:4d:40:99:6b:b6:e7:
                    89:58:97:d6:d4:4d:ea:4b:68:52:f3:3c:a8:b1:35:
                    88:db
                Exponent: 65537 (0x10001)
        X509v3 extensions:
            X509v3 Subject Key Identifier: 
                A1:DF:33:C3:CF:3E:53:41:A7:68:44:CC:AA:19:E1:84:C9:0D:BC:C6
            X509v3 Authority Key Identifier: 
                keyid:B4:11:33:F1:D7:E2:5E:F7:53:9E:20:22:10:4F:86:06:BF:1F:C9:5E
                DirName:/C=AU/O=Dodgy Brothers/CN=Dodgy CA
                serial:7B:36:77:E0:2F:99:A5:9F:9D:C0:A4:C8:37:28:35:21:E5:D1:0B:1C
            X509v3 Basic Constraints: critical
                CA:TRUE, pathlen:1
            X509v3 Key Usage: 
                Certificate Sign, CRL Sign
            X509v3 Issuer Alternative Name: 
                <EMPTY>

    Signature Algorithm: sha1WithRSAEncryption
    Signature Value:
        72:56:08:e8:7a:de:33:ba:38:8c:96:42:31:c3:39:ca:1a:e1:
        75:66:fc:a5:ad:1b:c6:a8:93:e3:45:26:b4:2b:12:47:bc:a2:
        8c:80:67:27:b1:3d:22:6d:66:06:db:91:64:18:9c:70:0d:46:
        58:fe:9b:3d:81:18:ff:f2:39:09:76:5c:fb:b9:28:82:ef:ca:
        bd:9b:ae:84:4f:90:ef:92:9e:97:a2:96:3f:74:a1:25:5a:21:
        24:e7:5c:ee:20:44:9a:f2:5a:d1:57:62:3f:4f:f8:ab:40:01:
        9e:3c:eb:60:17:b3:eb:89:35:c3:51:ab:69:51:47:9f:ac:aa:
        a2:47:b7:8a:ca:99:24:bb:2b:22:b3:89:26:f9:1e:14:a5:f3:
        9a:e0:db:9b:9e:5f:83:c6:13:03:60:d3:63:f7:2b:6d:51:52:
        b7:35:fd:f3:91:b2:f6:4b:f9:b6:61:2c:42:b0:ec:33:7b:62:
        01:42:43:d9:4d:30:33:2f:73:42:08:05:e6:49:b0:85:06:f7:
        33:ef:40:2d:5d:58:87:34:89:0b:72:dc:92:96:07:7d:9e:e3:
        e7:ad:fe:a5:60:68:09:82:58:82:69:20:8e:b1:88:57:13:29:
        7b:75:a1:a4:03:4b:88:45:83:84:79:5b:c5:be:ae:c2:12:c0:
        f5:f2:70:ca
-----BEGIN CERTIFICATE-----
MIID2DCCAsCgAwIBAgIUCg2g296ZhiGFaWKpRum1FIMPdjMwDQYJKoZIhvcNAQEF
BQAwOTELMAkGA1UEBhMCQVUxFzAVBgNVBAoMDkRvZGd5IEJyb3RoZXJzMREwDwYD
VQQDDAhEb2RneSBDQTAeFw0yMzAzMDYxMzQxMDRaFw0yNDAzMDUxMzQxMDRaMEwx
CzAJBgNVBAYTAkFVMRcwFQYDVQQKDA5Eb2RneSBCcm90aGVyczESMBAGA1UEAwwJ
QnJvdGhlciAxMRAwDgYDVQQDDAdub3RpbWVzMIIBIjANBgkqhkiG9w0BAQEFAAOC
AQ8AMIIBCgKCAQEAvpWG+nFMaupRmFBLmaEsZhXzYPPh/2n7zkgBHf7hLDiw472P
S0infjrGc+Orv+Habpb1/sPktKitvFY01JYldCfDENs1ECUcjkuBm/tCBHxvPeI4
bA7kLo4qGG0wzWcqI2s3zwWfzLdZWH+6xAo/jKSty5icwPKPaWcPwU4zz/yFXrte
z5Owz9n0UnmHsfhNFWhl1bcZCGN/XrE0rQWPWvDk4Y8l8lxcYZWwVi0xKwhleeWx
O50+uVJLrF3EWGaFjYGzBCj0Py+skgFi1f2OC9oCDHrHbgkcrByyTNdUuCYzsl8U
87H5PWJNQJlrtueJWJfW1E3qS2hS8zyosTWI2wIDAQABo4HEMIHBMB0GA1UdDgQW
BBSh3zPDzz5TQadoRMyqGeGEyQ28xjB0BgNVHSMEbTBrgBS0ETPx1+Je91OeICIQ
T4YGvx/JXqE9pDswOTELMAkGA1UEBhMCQVUxFzAVBgNVBAoMDkRvZGd5IEJyb3Ro
ZXJzMREwDwYDVQQDDAhEb2RneSBDQYIUezZ34C+ZpZ+dwKTINyg1IeXRCxwwEgYD
VR0TAQH/BAgwBgEB/wIBATALBgNVHQ8EBAMCAQYwCQYDVR0SBAIwADANBgkqhkiG
9w0BAQUFAAOCAQEAclYI6HreM7o4jJZCMcM5yhrhdWb8pa0bxqiT40UmtCsSR7yi
jIBnJ7E9Im1mBtuRZBiccA1GWP6bPYEY//I5CXZc+7kogu/KvZuuhE+Q75Kel6KW
P3ShJVohJOdc7iBEmvJa0VdiP0/4q0ABnjzrYBez64k1w1GraVFHn6yqoke3isqZ
JLsrIrOJJvkeFKXzmuDbm55fg8YTA2DTY/crbVFStzX985Gy9kv5tmEsQrDsM3ti
AUJD2U0wMy9zQggF5kmwhQb3M+9ALV1YhzSJC3LckpYHfZ7j563+pWBoCYJYgmkg
jrGIVxMpe3WhpANLiEWDhHlbxb6uwhLA9fJwyg==
-----END CERTIFICATE-----
