Certificate:
    Data:
        Version: 3 (0x2)
        Serial Number: 1234567890 (0x499602d2)
        Signature Algorithm: sha256WithRSAEncryption
        Issuer: CN = ca.example.com
        Validity
            Not Before: Mar  6 13:35:04 2023 GMT
            Not After : Mar  5 13:35:04 2024 GMT
        Subject: CN = test.example.com
        Subject Public Key Info:
            Public Key Algorithm: rsaEncryption
                Public-Key: (2048 bit)
                Modulus:
                    00:b0:f7:cf:65:a1:d3:6d:f5:09:15:bc:b8:a5:89:
                    5d:ff:1a:31:8d:fc:b3:4e:fd:7a:9c:19:35:5a:93:
                    96:ad:98:2c:0c:85:6f:d0:b9:96:c5:69:f3:92:dd:
                    30:61:8e:9d:6a:56:da:58:51:24:71:e5:04:e3:47:
                    80:1c:4a:e0:e7:b6:3e:99:b1:9c:62:5b:33:64:3b:
                    20:7e:ed:79:02:d1:7d:86:32:c6:57:86:fd:98:b2:
                    1c:1a:e9:52:93:4f:69:91:63:e3:19:fd:d3:ae:7a:
                    d1:35:04:89:cd:15:86:c3:4f:46:92:aa:fd:5e:19:
                    26:4f:96:e9:b8:3e:1c:87:fc:03:91:c0:20:26:72:
                    e3:36:84:75:22:e9:be:5e:37:ad:f4:66:21:10:87:
                    19:bf:3c:fd:a4:f1:6e:89:f0:ec:d6:cf:26:45:18:
                    e5:c6:be:da:3c:df:ae:ef:01:a3:15:84:0e:54:10:
                    5f:72:84:66:5a:c1:7e:0d:9f:a1:ff:2e:0d:63:bf:
                    c0:3a:3c:41:00:62:9f:a4:96:84:b4:41:b7:9b:67:
                    8d:d7:40:d0:0f:b0:12:f6:06:fb:aa:0f:f9:11:96:
                    e6:95:55:a0:31:ef:e2:fe:b7:52:41:6a:7e:da:17:
                    3a:21:9b:c2:d7:fc:e6:d1:29:02:f0:a9:d6:54:94:
                    12:01
                Exponent: 65537 (0x10001)
        X509v3 extensions:
            X509v3 Subject Key Identifier: 
                07:E2:0E:28:AE:A7:3C:44:2C:F0:5D:59:D4:A1:D5:A4:3E:A7:7E:B0
            X509v3 Authority Key Identifier: 
                07:E2:0E:28:AE:A7:3C:44:2C:F0:5D:59:D4:A1:D5:A4:3E:A7:7E:B0
            X509v3 Basic Constraints: critical
                CA:TRUE
    Signature Algorithm: sha256WithRSAEncryption
    Signature Value:
        7d:1f:c7:00:de:f3:ba:ad:70:f3:26:eb:0e:ca:3d:fd:c3:ee:
        e9:3c:50:83:6a:5b:39:2b:bb:54:2e:55:d0:14:a5:f8:fa:db:
        cb:1d:66:98:75:3e:8e:e3:c3:6b:4a:94:63:10:fd:37:8c:1a:
        cc:ec:99:df:a3:0d:b0:5c:ac:02:b9:d2:93:9f:0a:46:52:49:
        29:e6:ed:60:8b:da:4f:41:c0:fb:ae:e8:71:82:a4:f8:19:45:
        64:3f:73:3f:e2:d3:07:10:f9:ec:5c:44:eb:61:bd:dd:b8:f9:
        15:5d:70:3e:cd:6e:51:9f:8c:30:26:da:df:05:81:7c:e7:ce:
        b2:24:d0:8f:23:b2:2f:81:90:51:08:54:c6:b7:ed:29:9a:40:
        af:e7:6f:bc:f9:07:e6:1e:40:32:10:9f:44:5b:6c:f3:70:45:
        57:97:98:58:55:c2:2e:a6:0a:d3:36:c9:94:ed:b7:d7:c9:d0:
        72:62:5e:28:33:3f:7a:2c:49:9d:81:d4:f0:28:91:d0:b5:88:
        85:9a:97:5b:1b:64:d2:1b:a4:f9:56:9a:e7:b5:d6:04:9d:34:
        48:33:2c:13:b1:e2:1a:f5:74:33:ea:ca:cf:99:37:4c:1c:8a:
        a6:11:35:1d:1c:a4:8e:95:ed:10:5d:f3:b2:51:4e:34:28:32:
        a4:2f:8e:cd:ff:9b:ce:2d:2c:a2:41:00:21:02:26:53:e6:fe:
        73:17:7b:68:c9:8c:05:e8:72:a1:1b:e7:73:2e:a3:f5:86:ab:
        6f:8b:dc:71:37:e3:8a:c6:de:18:75:cc:1e:69:a1:0d:9a:dc:
        d0:b1:73:0c:93:f6:f8:39:a7:79:89:b4:98:06:fe:41:82:4f:
        7d:1b:61:4d:bc:f4:a2:27:10:5a:b5:51:64:23:aa:79:b4:ca:
        a9:b4:66:8e:0b:78:87:e8:cd:fd:39:fa:3d:93:1f:0f:16:12:
        25:09:22:e6:06:0b:4b:6d:bb:51:b4:5b:84:8a:cc:f3:09:a8:
        b7:49:29:6c:eb:e9:12:03:f0:e8:1f:c2:c2:4b:43:fe:c9:5d:
        ff:cd:4b:99:ba:c2:8a:d4:e6:95:d9:69:0a:37:e7:b5:44:21:
        c3:fd:73:89:d5:5e:fa:5b:1f:30:f2:67:e1:51:45:3a:ba:16:
        09:dc:2b:de:94:fa:93:64:50:1f:a1:c0:a1:7f:85:7f:69:3b:
        60:c1:3e:98:81:3f:7c:b3:85:a8:cd:12:39:7e:fb:cd:35:10:
        2e:6a:f3:9a:8e:bd:48:61:e3:d2:98:74:57:63:c6:46:09:6f:
        7d:b4:65:94:f4:2d:e2:ae:d6:54:0a:71:4d:60:a4:70:a5:99:
        df:65:34:4b:74:12:e3:f6
-----BEGIN CERTIFICATE-----
MIIEBTCCAe2gAwIBAgIESZYC0jANBgkqhkiG9w0BAQsFADAZMRcwFQYDVQQDDA5j
YS5leGFtcGxlLmNvbTAeFw0yMzAzMDYxMzM1MDRaFw0yNDAzMDUxMzM1MDRaMBsx
GTAXBgNVBAMMEHRlc3QuZXhhbXBsZS5jb20wggEiMA0GCSqGSIb3DQEBAQUAA4IB
DwAwggEKAoIBAQCw989lodNt9QkVvLiliV3/GjGN/LNO/XqcGTVak5atmCwMhW/Q
uZbFafOS3TBhjp1qVtpYUSRx5QTjR4AcSuDntj6ZsZxiWzNkOyB+7XkC0X2GMsZX
hv2Yshwa6VKTT2mRY+MZ/dOuetE1BInNFYbDT0aSqv1eGSZPlum4PhyH/AORwCAm
cuM2hHUi6b5eN630ZiEQhxm/PP2k8W6J8OzWzyZFGOXGvto8367vAaMVhA5UEF9y
hGZawX4Nn6H/Lg1jv8A6PEEAYp+kloS0QbebZ43XQNAPsBL2BvuqD/kRluaVVaAx
7+L+t1JBan7aFzohm8LX/ObRKQLwqdZUlBIBAgMBAAGjUzBRMB0GA1UdDgQWBBQH
4g4orqc8RCzwXVnUodWkPqd+sDAfBgNVHSMEGDAWgBQH4g4orqc8RCzwXVnUodWk
Pqd+sDAPBgNVHRMBAf8EBTADAQH/MA0GCSqGSIb3DQEBCwUAA4ICAQB9H8cA3vO6
rXDzJusOyj39w+7pPFCDals5K7tULlXQFKX4+tvLHWaYdT6O48NrSpRjEP03jBrM
7Jnfow2wXKwCudKTnwpGUkkp5u1gi9pPQcD7ruhxgqT4GUVkP3M/4tMHEPnsXETr
Yb3duPkVXXA+zW5Rn4wwJtrfBYF8586yJNCPI7IvgZBRCFTGt+0pmkCv52+8+Qfm
HkAyEJ9EW2zzcEVXl5hYVcIupgrTNsmU7bfXydByYl4oMz96LEmdgdTwKJHQtYiF
mpdbG2TSG6T5VprntdYEnTRIMywTseIa9XQz6srPmTdMHIqmETUdHKSOle0QXfOy
UU40KDKkL47N/5vOLSyiQQAhAiZT5v5zF3toyYwF6HKhG+dzLqP1hqtvi9xxN+OK
xt4YdcweaaENmtzQsXMMk/b4Oad5ibSYBv5Bgk99G2FNvPSiJxBatVFkI6p5tMqp
tGaOC3iH6M39Ofo9kx8PFhIlCSLmBgtLbbtRtFuEiszzCai3SSls6+kSA/DoH8LC
S0P+yV3/zUuZusKK1OaV2WkKN+e1RCHD/XOJ1V76Wx8w8mfhUUU6uhYJ3CvelPqT
ZFAfocChf4V/aTtgwT6YgT98s4WozRI5fvvNNRAuavOajr1IYePSmHRXY8ZGCW99
tGWU9C3irtZUCnFNYKRwpZnfZTRLdBLj9g==
-----END CERTIFICATE-----
