Certificate:
    Data:
        Version: 1 (0x0)
        Serial Number:
            4b:c3:22:ed:24:7e:87:03:6a:ad:04:6a:ad:86:73:21:e7:1a:81:88
        Signature Algorithm: sha256WithRSAEncryption
        Issuer: CN = ca.example.com
        Validity
            Not Before: Mar  6 13:35:10 2023 GMT
            Not After : Apr  5 13:35:10 2023 GMT
        Subject: CN = b.example.com
        Subject Public Key Info:
            Public Key Algorithm: rsaEncryption
                Public-Key: (4096 bit)
                Modulus:
                    00:e5:47:4a:ef:5f:e0:4d:69:19:1d:3a:71:83:ef:
                    62:00:9e:0a:31:d2:33:8a:3b:6a:39:8c:36:86:39:
                    9b:6e:20:61:28:a0:55:11:45:d5:ba:7c:de:6d:13:
                    65:f2:ff:b5:16:1e:c7:86:43:2d:18:ef:2f:19:8b:
                    9a:05:6c:1e:3a:1b:b9:30:2e:2a:d3:7c:73:c8:08:
                    84:a4:a7:ac:32:57:d6:c7:33:17:b9:d8:f2:de:50:
                    64:97:a3:67:84:ae:9e:62:3b:3f:ae:2f:78:7e:2f:
                    ba:1b:8a:72:0c:74:3b:5e:42:9c:73:bc:1f:ce:0f:
                    29:e1:f4:72:8a:77:a3:1e:d7:81:0c:43:03:20:22:
                    87:c5:a2:e4:ff:a9:94:a4:b3:ca:cf:7a:86:d9:ce:
                    e7:d8:ee:d4:07:9a:33:3c:e3:d7:e2:5e:eb:85:57:
                    9e:6e:8c:51:21:fd:82:1c:a5:5c:a7:c0:14:bf:f7:
                    59:73:37:ac:45:5e:ed:2a:cf:d6:52:f9:b0:22:8e:
                    12:1c:5e:7c:c3:87:63:2b:6e:b4:dd:78:0f:b4:53:
                    a5:61:f1:55:47:5b:36:bd:5e:0c:45:fc:c4:e3:ea:
                    56:99:c3:50:c3:1d:87:4a:5d:ae:ab:88:5f:d0:71:
                    35:5b:10:7f:9e:f9:5c:35:fd:04:ab:08:83:93:2e:
                    e8:98:27:1d:cc:fb:ae:64:50:11:4d:a8:d4:b8:0c:
                    e0:b2:70:da:e7:ee:3d:50:62:19:8d:3c:87:b4:9c:
                    67:c2:4f:55:74:24:17:17:8c:06:b1:c6:22:ae:70:
                    4d:d5:30:e9:c8:66:c4:9a:e9:81:3e:d8:37:b1:c4:
                    73:90:9e:7b:3d:77:c4:77:6e:3c:7d:6e:77:29:e0:
                    fb:2d:82:14:09:db:46:d1:36:17:a9:0e:4e:fe:2b:
                    4d:82:02:a3:60:57:ac:7b:5f:67:db:36:f2:ef:fb:
                    d1:bc:b0:c4:99:3a:d3:50:f1:0d:54:45:c8:74:48:
                    61:ac:8d:c4:7e:01:52:cc:7d:65:70:68:16:60:75:
                    92:f1:37:55:9e:41:af:44:13:f3:1b:c1:0d:51:a4:
                    1f:8a:b1:27:05:68:d1:78:c2:f8:8c:57:85:d7:10:
                    3b:f2:0b:ea:67:1e:c1:e2:62:f7:64:09:4b:26:d6:
                    f1:14:12:10:3b:1c:1c:6e:4d:92:37:92:6b:ab:37:
                    61:e3:5f:05:ff:ad:3d:3b:a2:94:f6:ec:3a:02:b9:
                    9c:f8:de:28:70:7d:2a:3b:91:e0:1c:51:10:ea:8e:
                    41:ee:b4:3c:94:4c:20:1a:cf:ee:3c:ca:6c:d5:70:
                    37:44:81:14:24:2a:94:a2:61:51:3c:8d:f5:6c:0e:
                    f5:95:8f
                Exponent: 65537 (0x10001)
    Signature Algorithm: sha256WithRSAEncryption
    Signature Value:
        27:16:ed:5b:3e:2c:06:b8:52:67:fb:da:97:c9:09:1a:5d:4f:
        15:40:cb:00:8a:9a:90:35:77:1d:4d:2c:86:1d:3b:10:f1:86:
        c8:8a:c2:79:34:52:53:e2:01:60:9d:5a:93:be:7f:51:b2:54:
        66:f1:3e:2a:03:0d:c2:5e:cb:6d:10:4c:2d:87:04:2b:7b:4d:
        eb:78:3a:4d:40:61:e0:00:6d:04:e0:99:a4:9d:1e:c0:68:7c:
        b6:33:b5:82:1f:d4:f9:8f:d1:4b:ad:bc:bc:bc:5f:83:d1:80:
        30:10:ad:d1:25:be:8a:d6:6a:7a:6a:45:43:e6:bb:e8:5e:94:
        e9:8a:a4:17:51:a8:18:d4:79:99:72:fe:78:ff:f1:80:7a:65:
        ec:8d:22:7a:24:a3:49:e9:d0:1c:15:ab:b0:91:57:08:4b:70:
        9e:d2:f7:29:e9:73:3a:42:68:10:4e:23:e9:3f:ad:6c:c1:ef:
        fb:a1:16:67:11:13:7a:01:56:80:f8:76:67:be:87:3a:4b:7f:
        76:2d:12:5a:21:f4:3f:dd:90:d6:8d:c8:c0:d3:41:5f:3d:1b:
        a5:0a:0d:6d:57:18:ad:4d:63:61:83:af:34:38:22:f5:2b:b9:
        ae:06:03:d6:f1:f5:a2:01:f8:fa:f5:33:49:fd:ef:3f:b4:aa:
        a3:cb:f4:0f:fb:6a:72:22:db:76:c5:f3:46:b2:bd:30:9b:4a:
        61:2b:f4:50:f9:ba:48:62:69:ce:93:21:68:c1:93:b9:31:cd:
        97:44:95:a5:80:95:a9:f9:1b:31:53:4c:f6:35:80:8b:af:03:
        d6:93:11:35:e1:ba:47:e0:01:58:24:19:21:29:3a:2e:2f:20:
        99:5f:9e:80:e2:06:f4:e6:80:2f:d8:f6:52:f0:74:cc:25:fb:
        d2:33:12:ae:6b:6c:44:01:d3:27:80:7e:00:ce:a6:ef:4d:3d:
        76:45:6d:d4:61:ad:74:cd:80:cd:f3:a6:3d:74:c9:9e:73:99:
        47:06:1d:1e:f2:16:06:10:ac:bb:99:6e:7e:23:9b:79:f5:e7:
        e5:ee:70:ff:29:ca:23:a0:41:f2:fc:ce:3f:6a:68:2f:a2:4b:
        32:ad:80:bf:27:1f:38:ba:ae:21:65:a7:b3:ce:a7:54:88:9e:
        13:12:c0:37:40:15:cb:74:01:76:1a:51:87:64:02:f4:52:9a:
        8b:f0:d0:e4:fb:4e:80:43:a2:a8:bb:fa:f6:e8:f7:65:81:d8:
        5c:e2:83:9e:65:6b:3c:4d:4e:1a:51:1a:27:72:99:e4:8c:2e:
        e7:b2:cb:3a:39:58:81:28:28:41:31:86:6e:67:18:80:03:33:
        04:71:d3:97:45:44:65:30
-----BEGIN CERTIFICATE-----
MIIEuDCCAqACFEvDIu0kfocDaq0Eaq2GcyHnGoGIMA0GCSqGSIb3DQEBCwUAMBkx
FzAVBgNVBAMMDmNhLmV4YW1wbGUuY29tMB4XDTIzMDMwNjEzMzUxMFoXDTIzMDQw
NTEzMzUxMFowGDEWMBQGA1UEAwwNYi5leGFtcGxlLmNvbTCCAiIwDQYJKoZIhvcN
AQEBBQADggIPADCCAgoCggIBAOVHSu9f4E1pGR06cYPvYgCeCjHSM4o7ajmMNoY5
m24gYSigVRFF1bp83m0TZfL/tRYex4ZDLRjvLxmLmgVsHjobuTAuKtN8c8gIhKSn
rDJX1sczF7nY8t5QZJejZ4SunmI7P64veH4vuhuKcgx0O15CnHO8H84PKeH0cop3
ox7XgQxDAyAih8Wi5P+plKSzys96htnO59ju1AeaMzzj1+Je64VXnm6MUSH9ghyl
XKfAFL/3WXM3rEVe7SrP1lL5sCKOEhxefMOHYytutN14D7RTpWHxVUdbNr1eDEX8
xOPqVpnDUMMdh0pdrquIX9BxNVsQf575XDX9BKsIg5Mu6JgnHcz7rmRQEU2o1LgM
4LJw2ufuPVBiGY08h7ScZ8JPVXQkFxeMBrHGIq5wTdUw6chmxJrpgT7YN7HEc5Ce
ez13xHduPH1udyng+y2CFAnbRtE2F6kOTv4rTYICo2BXrHtfZ9s28u/70bywxJk6
01DxDVRFyHRIYayNxH4BUsx9ZXBoFmB1kvE3VZ5Br0QT8xvBDVGkH4qxJwVo0XjC
+IxXhdcQO/IL6mceweJi92QJSybW8RQSEDscHG5NkjeSa6s3YeNfBf+tPTuilPbs
OgK5nPjeKHB9KjuR4BxREOqOQe60PJRMIBrP7jzKbNVwN0SBFCQqlKJhUTyN9WwO
9ZWPAgMBAAEwDQYJKoZIhvcNAQELBQADggIBACcW7Vs+LAa4Umf72pfJCRpdTxVA
ywCKmpA1dx1NLIYdOxDxhsiKwnk0UlPiAWCdWpO+f1GyVGbxPioDDcJey20QTC2H
BCt7Tet4Ok1AYeAAbQTgmaSdHsBofLYztYIf1PmP0UutvLy8X4PRgDAQrdElvorW
anpqRUPmu+helOmKpBdRqBjUeZly/nj/8YB6ZeyNInoko0np0BwVq7CRVwhLcJ7S
9ynpczpCaBBOI+k/rWzB7/uhFmcRE3oBVoD4dme+hzpLf3YtEloh9D/dkNaNyMDT
QV89G6UKDW1XGK1NY2GDrzQ4IvUrua4GA9bx9aIB+Pr1M0n97z+0qqPL9A/7anIi
23bF80ayvTCbSmEr9FD5ukhiac6TIWjBk7kxzZdElaWAlan5GzFTTPY1gIuvA9aT
ETXhukfgAVgkGSEpOi4vIJlfnoDiBvTmgC/Y9lLwdMwl+9IzEq5rbEQB0yeAfgDO
pu9NPXZFbdRhrXTNgM3zpj10yZ5zmUcGHR7yFgYQrLuZbn4jm3n15+XucP8pyiOg
QfL8zj9qaC+iSzKtgL8nHzi6riFlp7POp1SInhMSwDdAFct0AXYaUYdkAvRSmovw
0OT7ToBDoqi7+vbo92WB2Fzig55lazxNThpRGidymeSMLueyyzo5WIEoKEExhm5n
GIADMwRx05dFRGUw
-----END CERTIFICATE-----
